

Microchip MPLAB XC8 Assembler V2.30 build 20200825195618 
                                                                                               Sat Jul 10 16:40:47 2021

Microchip MPLAB XC8 C Compiler v2.30 (Free license) build 20200825195618 Og1 
     1                           	processor	16F1938
     2                           	pagewidth 120
     3                           	opt	flic
     4                           	psect	cinit,global,class=CODE,merge=1,delta=2
     5                           	psect	bssBANK0,global,class=BANK0,space=1,delta=1,noexec
     6                           	psect	cstackCOMMON,global,class=COMMON,space=1,delta=1,noexec
     7                           	psect	cstackBANK0,global,class=BANK0,space=1,delta=1,noexec
     8                           	psect	maintext,global,class=CODE,merge=1,split=1,delta=2
     9                           	psect	text1,local,class=CODE,merge=1,delta=2
    10                           	psect	text2,local,class=CODE,merge=1,delta=2
    11                           	psect	text3,local,class=CODE,merge=1,delta=2
    12                           	psect	text4,local,class=CODE,merge=1,delta=2
    13                           	psect	text5,local,class=CODE,merge=1,delta=2
    14                           	psect	text6,local,class=CODE,merge=1,delta=2,group=1
    15                           	psect	text7,local,class=CODE,merge=1,delta=2
    16                           	psect	text8,local,class=CODE,merge=1,delta=2
    17                           	psect	text9,local,class=CODE,merge=1,delta=2
    18                           	psect	text10,local,class=CODE,merge=1,delta=2
    19                           	psect	text11,local,class=CODE,merge=1,delta=2
    20                           	psect	text12,local,class=CODE,merge=1,delta=2
    21                           	psect	text13,local,class=CODE,merge=1,delta=2
    22                           	psect	text14,local,class=CODE,merge=1,delta=2
    23                           	psect	text15,local,class=CODE,merge=1,delta=2
    24                           	psect	intentry,global,class=CODE,delta=2
    25                           	psect	text17,local,class=CODE,merge=1,delta=2
    26                           	psect	text18,local,class=CODE,merge=1,delta=2
    27                           	psect	text19,local,class=CODE,merge=1,delta=2
    28                           	psect	text20,local,class=CODE,merge=1,delta=2
    29                           	psect	text21,local,class=CODE,merge=1,delta=2
    30                           	psect	text22,local,class=CODE,merge=1,delta=2
    31                           	psect	text23,local,class=CODE,merge=1,delta=2
    32                           	psect	text24,local,class=CODE,merge=1,delta=2
    33                           	psect	text25,local,class=CODE,merge=1,delta=2,group=1
    34                           	psect	text26,local,class=CODE,merge=1,delta=2
    35                           	psect	config,global,abs,ovrld,class=CONFIG,space=4,delta=2,noexec
    36                           	dabs	1,0x7E,2
    37  0000                     
    38                           ; Version 2.30
    39                           ; Generated 26/08/2020 GMT
    40                           ; 
    41                           ; Copyright © 2020, Microchip Technology Inc. and its subsidiaries ("Microchip")
    42                           ; All rights reserved.
    43                           ; 
    44                           ; This software is developed by Microchip Technology Inc. and its subsidiaries ("Microch
      +                          ip").
    45                           ; 
    46                           ; Redistribution and use in source and binary forms, with or without modification, are
    47                           ; permitted provided that the following conditions are met:
    48                           ; 
    49                           ;     1. Redistributions of source code must retain the above copyright notice, this lis
      +                          t of
    50                           ;        conditions and the following disclaimer.
    51                           ; 
    52                           ;     2. Redistributions in binary form must reproduce the above copyright notice, this 
      +                          list
    53                           ;        of conditions and the following disclaimer in the documentation and/or other
    54                           ;        materials provided with the distribution. Publication is not required when
    55                           ;        this file is used in an embedded application.
    56                           ; 
    57                           ;     3. Microchip's name may not be used to endorse or promote products derived from th
      +                          is
    58                           ;        software without specific prior written permission.
    59                           ; 
    60                           ; THIS SOFTWARE IS PROVIDED BY MICROCHIP "AS IS" AND ANY EXPRESS OR IMPLIED WARRANTIES,
    61                           ; INCLUDING, BUT NOT LIMITED TO, THE IMPLIED WARRANTIES OF MERCHANTABILITY AND FITNESS F
      +                          OR
    62                           ; PURPOSE ARE DISCLAIMED.  IN NO EVENT SHALL MICROCHIP BE LIABLE FOR ANY DIRECT, INDIREC
      +                          T,
    63                           ; INCIDENTAL, SPECIAL, EXEMPLARY, OR CONSEQUENTIAL DAMAGES (INCLUDING BUT NOT LIMITED TO
    64                           ; PROCUREMENT OF SUBSTITUTE GOODS OR SERVICES; LOSS OF USE, DATA OR PROFITS; OR BUSINESS
    65                           ; INTERRUPTION) HOWSOEVER CAUSED AND ON ANY THEORY OF LIABILITY, WHETHER IN CONTRACT, ST
      +                          RICT
    66                           ; LIABILITY, OR TORT (INCLUDING NEGLIGENCE OR OTHERWISE) ARISING IN ANY WAY OUT OF THE U
      +                          SE OF
    67                           ; THIS SOFTWARE, EVEN IF ADVISED OF THE POSSIBILITY OF SUCH DAMAGE.
    68                           ; 
    69                           ; 
    70                           ; Code-generator required, PIC16F1938 Definitions
    71                           ; 
    72                           ; SFR Addresses
    73  0000                     	;# 
    74  0001                     	;# 
    75  0002                     	;# 
    76  0003                     	;# 
    77  0004                     	;# 
    78  0005                     	;# 
    79  0006                     	;# 
    80  0007                     	;# 
    81  0008                     	;# 
    82  0009                     	;# 
    83  000A                     	;# 
    84  000B                     	;# 
    85  000C                     	;# 
    86  000D                     	;# 
    87  000E                     	;# 
    88  0010                     	;# 
    89  0011                     	;# 
    90  0012                     	;# 
    91  0013                     	;# 
    92  0015                     	;# 
    93  0016                     	;# 
    94  0016                     	;# 
    95  0017                     	;# 
    96  0018                     	;# 
    97  0019                     	;# 
    98  001A                     	;# 
    99  001B                     	;# 
   100  001C                     	;# 
   101  001E                     	;# 
   102  001F                     	;# 
   103  008C                     	;# 
   104  008D                     	;# 
   105  008E                     	;# 
   106  0090                     	;# 
   107  0091                     	;# 
   108  0092                     	;# 
   109  0093                     	;# 
   110  0095                     	;# 
   111  0096                     	;# 
   112  0097                     	;# 
   113  0098                     	;# 
   114  0099                     	;# 
   115  009A                     	;# 
   116  009B                     	;# 
   117  009B                     	;# 
   118  009C                     	;# 
   119  009D                     	;# 
   120  009E                     	;# 
   121  010C                     	;# 
   122  010D                     	;# 
   123  010E                     	;# 
   124  0110                     	;# 
   125  0111                     	;# 
   126  0112                     	;# 
   127  0113                     	;# 
   128  0114                     	;# 
   129  0115                     	;# 
   130  0116                     	;# 
   131  0117                     	;# 
   132  0118                     	;# 
   133  0119                     	;# 
   134  011A                     	;# 
   135  011B                     	;# 
   136  011D                     	;# 
   137  018C                     	;# 
   138  018D                     	;# 
   139  0191                     	;# 
   140  0191                     	;# 
   141  0192                     	;# 
   142  0193                     	;# 
   143  0193                     	;# 
   144  0193                     	;# 
   145  0194                     	;# 
   146  0195                     	;# 
   147  0196                     	;# 
   148  0199                     	;# 
   149  019A                     	;# 
   150  019B                     	;# 
   151  019B                     	;# 
   152  019B                     	;# 
   153  019B                     	;# 
   154  019C                     	;# 
   155  019C                     	;# 
   156  019D                     	;# 
   157  019E                     	;# 
   158  019F                     	;# 
   159  020D                     	;# 
   160  0210                     	;# 
   161  0211                     	;# 
   162  0212                     	;# 
   163  0213                     	;# 
   164  0214                     	;# 
   165  0215                     	;# 
   166  0215                     	;# 
   167  0216                     	;# 
   168  0217                     	;# 
   169  0291                     	;# 
   170  0291                     	;# 
   171  0292                     	;# 
   172  0293                     	;# 
   173  0294                     	;# 
   174  0295                     	;# 
   175  0295                     	;# 
   176  0296                     	;# 
   177  0298                     	;# 
   178  0298                     	;# 
   179  0299                     	;# 
   180  029A                     	;# 
   181  029B                     	;# 
   182  029C                     	;# 
   183  029C                     	;# 
   184  029D                     	;# 
   185  029E                     	;# 
   186  029F                     	;# 
   187  0311                     	;# 
   188  0311                     	;# 
   189  0312                     	;# 
   190  0313                     	;# 
   191  0314                     	;# 
   192  0315                     	;# 
   193  0315                     	;# 
   194  0316                     	;# 
   195  0318                     	;# 
   196  0318                     	;# 
   197  0319                     	;# 
   198  031A                     	;# 
   199  031C                     	;# 
   200  031C                     	;# 
   201  031D                     	;# 
   202  031E                     	;# 
   203  0394                     	;# 
   204  0395                     	;# 
   205  0396                     	;# 
   206  0415                     	;# 
   207  0416                     	;# 
   208  0417                     	;# 
   209  041C                     	;# 
   210  041D                     	;# 
   211  041E                     	;# 
   212  0791                     	;# 
   213  0792                     	;# 
   214  0793                     	;# 
   215  0794                     	;# 
   216  0795                     	;# 
   217  0798                     	;# 
   218  0799                     	;# 
   219  07A0                     	;# 
   220  07A1                     	;# 
   221  07A3                     	;# 
   222  07A4                     	;# 
   223  07A6                     	;# 
   224  07A7                     	;# 
   225  07A9                     	;# 
   226  07AA                     	;# 
   227  0FE4                     	;# 
   228  0FE5                     	;# 
   229  0FE6                     	;# 
   230  0FE7                     	;# 
   231  0FE8                     	;# 
   232  0FE9                     	;# 
   233  0FEA                     	;# 
   234  0FEB                     	;# 
   235  0FED                     	;# 
   236  0FEE                     	;# 
   237  0FEF                     	;# 
   238  0000                     	;# 
   239  0001                     	;# 
   240  0002                     	;# 
   241  0003                     	;# 
   242  0004                     	;# 
   243  0005                     	;# 
   244  0006                     	;# 
   245  0007                     	;# 
   246  0008                     	;# 
   247  0009                     	;# 
   248  000A                     	;# 
   249  000B                     	;# 
   250  000C                     	;# 
   251  000D                     	;# 
   252  000E                     	;# 
   253  0010                     	;# 
   254  0011                     	;# 
   255  0012                     	;# 
   256  0013                     	;# 
   257  0015                     	;# 
   258  0016                     	;# 
   259  0016                     	;# 
   260  0017                     	;# 
   261  0018                     	;# 
   262  0019                     	;# 
   263  001A                     	;# 
   264  001B                     	;# 
   265  001C                     	;# 
   266  001E                     	;# 
   267  001F                     	;# 
   268  008C                     	;# 
   269  008D                     	;# 
   270  008E                     	;# 
   271  0090                     	;# 
   272  0091                     	;# 
   273  0092                     	;# 
   274  0093                     	;# 
   275  0095                     	;# 
   276  0096                     	;# 
   277  0097                     	;# 
   278  0098                     	;# 
   279  0099                     	;# 
   280  009A                     	;# 
   281  009B                     	;# 
   282  009B                     	;# 
   283  009C                     	;# 
   284  009D                     	;# 
   285  009E                     	;# 
   286  010C                     	;# 
   287  010D                     	;# 
   288  010E                     	;# 
   289  0110                     	;# 
   290  0111                     	;# 
   291  0112                     	;# 
   292  0113                     	;# 
   293  0114                     	;# 
   294  0115                     	;# 
   295  0116                     	;# 
   296  0117                     	;# 
   297  0118                     	;# 
   298  0119                     	;# 
   299  011A                     	;# 
   300  011B                     	;# 
   301  011D                     	;# 
   302  018C                     	;# 
   303  018D                     	;# 
   304  0191                     	;# 
   305  0191                     	;# 
   306  0192                     	;# 
   307  0193                     	;# 
   308  0193                     	;# 
   309  0193                     	;# 
   310  0194                     	;# 
   311  0195                     	;# 
   312  0196                     	;# 
   313  0199                     	;# 
   314  019A                     	;# 
   315  019B                     	;# 
   316  019B                     	;# 
   317  019B                     	;# 
   318  019B                     	;# 
   319  019C                     	;# 
   320  019C                     	;# 
   321  019D                     	;# 
   322  019E                     	;# 
   323  019F                     	;# 
   324  020D                     	;# 
   325  0210                     	;# 
   326  0211                     	;# 
   327  0212                     	;# 
   328  0213                     	;# 
   329  0214                     	;# 
   330  0215                     	;# 
   331  0215                     	;# 
   332  0216                     	;# 
   333  0217                     	;# 
   334  0291                     	;# 
   335  0291                     	;# 
   336  0292                     	;# 
   337  0293                     	;# 
   338  0294                     	;# 
   339  0295                     	;# 
   340  0295                     	;# 
   341  0296                     	;# 
   342  0298                     	;# 
   343  0298                     	;# 
   344  0299                     	;# 
   345  029A                     	;# 
   346  029B                     	;# 
   347  029C                     	;# 
   348  029C                     	;# 
   349  029D                     	;# 
   350  029E                     	;# 
   351  029F                     	;# 
   352  0311                     	;# 
   353  0311                     	;# 
   354  0312                     	;# 
   355  0313                     	;# 
   356  0314                     	;# 
   357  0315                     	;# 
   358  0315                     	;# 
   359  0316                     	;# 
   360  0318                     	;# 
   361  0318                     	;# 
   362  0319                     	;# 
   363  031A                     	;# 
   364  031C                     	;# 
   365  031C                     	;# 
   366  031D                     	;# 
   367  031E                     	;# 
   368  0394                     	;# 
   369  0395                     	;# 
   370  0396                     	;# 
   371  0415                     	;# 
   372  0416                     	;# 
   373  0417                     	;# 
   374  041C                     	;# 
   375  041D                     	;# 
   376  041E                     	;# 
   377  0791                     	;# 
   378  0792                     	;# 
   379  0793                     	;# 
   380  0794                     	;# 
   381  0795                     	;# 
   382  0798                     	;# 
   383  0799                     	;# 
   384  07A0                     	;# 
   385  07A1                     	;# 
   386  07A3                     	;# 
   387  07A4                     	;# 
   388  07A6                     	;# 
   389  07A7                     	;# 
   390  07A9                     	;# 
   391  07AA                     	;# 
   392  0FE4                     	;# 
   393  0FE5                     	;# 
   394  0FE6                     	;# 
   395  0FE7                     	;# 
   396  0FE8                     	;# 
   397  0FE9                     	;# 
   398  0FEA                     	;# 
   399  0FEB                     	;# 
   400  0FED                     	;# 
   401  0FEE                     	;# 
   402  0FEF                     	;# 
   403  0000                     	;# 
   404  0001                     	;# 
   405  0002                     	;# 
   406  0003                     	;# 
   407  0004                     	;# 
   408  0005                     	;# 
   409  0006                     	;# 
   410  0007                     	;# 
   411  0008                     	;# 
   412  0009                     	;# 
   413  000A                     	;# 
   414  000B                     	;# 
   415  000C                     	;# 
   416  000D                     	;# 
   417  000E                     	;# 
   418  0010                     	;# 
   419  0011                     	;# 
   420  0012                     	;# 
   421  0013                     	;# 
   422  0015                     	;# 
   423  0016                     	;# 
   424  0016                     	;# 
   425  0017                     	;# 
   426  0018                     	;# 
   427  0019                     	;# 
   428  001A                     	;# 
   429  001B                     	;# 
   430  001C                     	;# 
   431  001E                     	;# 
   432  001F                     	;# 
   433  008C                     	;# 
   434  008D                     	;# 
   435  008E                     	;# 
   436  0090                     	;# 
   437  0091                     	;# 
   438  0092                     	;# 
   439  0093                     	;# 
   440  0095                     	;# 
   441  0096                     	;# 
   442  0097                     	;# 
   443  0098                     	;# 
   444  0099                     	;# 
   445  009A                     	;# 
   446  009B                     	;# 
   447  009B                     	;# 
   448  009C                     	;# 
   449  009D                     	;# 
   450  009E                     	;# 
   451  010C                     	;# 
   452  010D                     	;# 
   453  010E                     	;# 
   454  0110                     	;# 
   455  0111                     	;# 
   456  0112                     	;# 
   457  0113                     	;# 
   458  0114                     	;# 
   459  0115                     	;# 
   460  0116                     	;# 
   461  0117                     	;# 
   462  0118                     	;# 
   463  0119                     	;# 
   464  011A                     	;# 
   465  011B                     	;# 
   466  011D                     	;# 
   467  018C                     	;# 
   468  018D                     	;# 
   469  0191                     	;# 
   470  0191                     	;# 
   471  0192                     	;# 
   472  0193                     	;# 
   473  0193                     	;# 
   474  0193                     	;# 
   475  0194                     	;# 
   476  0195                     	;# 
   477  0196                     	;# 
   478  0199                     	;# 
   479  019A                     	;# 
   480  019B                     	;# 
   481  019B                     	;# 
   482  019B                     	;# 
   483  019B                     	;# 
   484  019C                     	;# 
   485  019C                     	;# 
   486  019D                     	;# 
   487  019E                     	;# 
   488  019F                     	;# 
   489  020D                     	;# 
   490  0210                     	;# 
   491  0211                     	;# 
   492  0212                     	;# 
   493  0213                     	;# 
   494  0214                     	;# 
   495  0215                     	;# 
   496  0215                     	;# 
   497  0216                     	;# 
   498  0217                     	;# 
   499  0291                     	;# 
   500  0291                     	;# 
   501  0292                     	;# 
   502  0293                     	;# 
   503  0294                     	;# 
   504  0295                     	;# 
   505  0295                     	;# 
   506  0296                     	;# 
   507  0298                     	;# 
   508  0298                     	;# 
   509  0299                     	;# 
   510  029A                     	;# 
   511  029B                     	;# 
   512  029C                     	;# 
   513  029C                     	;# 
   514  029D                     	;# 
   515  029E                     	;# 
   516  029F                     	;# 
   517  0311                     	;# 
   518  0311                     	;# 
   519  0312                     	;# 
   520  0313                     	;# 
   521  0314                     	;# 
   522  0315                     	;# 
   523  0315                     	;# 
   524  0316                     	;# 
   525  0318                     	;# 
   526  0318                     	;# 
   527  0319                     	;# 
   528  031A                     	;# 
   529  031C                     	;# 
   530  031C                     	;# 
   531  031D                     	;# 
   532  031E                     	;# 
   533  0394                     	;# 
   534  0395                     	;# 
   535  0396                     	;# 
   536  0415                     	;# 
   537  0416                     	;# 
   538  0417                     	;# 
   539  041C                     	;# 
   540  041D                     	;# 
   541  041E                     	;# 
   542  0791                     	;# 
   543  0792                     	;# 
   544  0793                     	;# 
   545  0794                     	;# 
   546  0795                     	;# 
   547  0798                     	;# 
   548  0799                     	;# 
   549  07A0                     	;# 
   550  07A1                     	;# 
   551  07A3                     	;# 
   552  07A4                     	;# 
   553  07A6                     	;# 
   554  07A7                     	;# 
   555  07A9                     	;# 
   556  07AA                     	;# 
   557  0FE4                     	;# 
   558  0FE5                     	;# 
   559  0FE6                     	;# 
   560  0FE7                     	;# 
   561  0FE8                     	;# 
   562  0FE9                     	;# 
   563  0FEA                     	;# 
   564  0FEB                     	;# 
   565  0FED                     	;# 
   566  0FEE                     	;# 
   567  0FEF                     	;# 
   568  0000                     	;# 
   569  0001                     	;# 
   570  0002                     	;# 
   571  0003                     	;# 
   572  0004                     	;# 
   573  0005                     	;# 
   574  0006                     	;# 
   575  0007                     	;# 
   576  0008                     	;# 
   577  0009                     	;# 
   578  000A                     	;# 
   579  000B                     	;# 
   580  000C                     	;# 
   581  000D                     	;# 
   582  000E                     	;# 
   583  0010                     	;# 
   584  0011                     	;# 
   585  0012                     	;# 
   586  0013                     	;# 
   587  0015                     	;# 
   588  0016                     	;# 
   589  0016                     	;# 
   590  0017                     	;# 
   591  0018                     	;# 
   592  0019                     	;# 
   593  001A                     	;# 
   594  001B                     	;# 
   595  001C                     	;# 
   596  001E                     	;# 
   597  001F                     	;# 
   598  008C                     	;# 
   599  008D                     	;# 
   600  008E                     	;# 
   601  0090                     	;# 
   602  0091                     	;# 
   603  0092                     	;# 
   604  0093                     	;# 
   605  0095                     	;# 
   606  0096                     	;# 
   607  0097                     	;# 
   608  0098                     	;# 
   609  0099                     	;# 
   610  009A                     	;# 
   611  009B                     	;# 
   612  009B                     	;# 
   613  009C                     	;# 
   614  009D                     	;# 
   615  009E                     	;# 
   616  010C                     	;# 
   617  010D                     	;# 
   618  010E                     	;# 
   619  0110                     	;# 
   620  0111                     	;# 
   621  0112                     	;# 
   622  0113                     	;# 
   623  0114                     	;# 
   624  0115                     	;# 
   625  0116                     	;# 
   626  0117                     	;# 
   627  0118                     	;# 
   628  0119                     	;# 
   629  011A                     	;# 
   630  011B                     	;# 
   631  011D                     	;# 
   632  018C                     	;# 
   633  018D                     	;# 
   634  0191                     	;# 
   635  0191                     	;# 
   636  0192                     	;# 
   637  0193                     	;# 
   638  0193                     	;# 
   639  0193                     	;# 
   640  0194                     	;# 
   641  0195                     	;# 
   642  0196                     	;# 
   643  0199                     	;# 
   644  019A                     	;# 
   645  019B                     	;# 
   646  019B                     	;# 
   647  019B                     	;# 
   648  019B                     	;# 
   649  019C                     	;# 
   650  019C                     	;# 
   651  019D                     	;# 
   652  019E                     	;# 
   653  019F                     	;# 
   654  020D                     	;# 
   655  0210                     	;# 
   656  0211                     	;# 
   657  0212                     	;# 
   658  0213                     	;# 
   659  0214                     	;# 
   660  0215                     	;# 
   661  0215                     	;# 
   662  0216                     	;# 
   663  0217                     	;# 
   664  0291                     	;# 
   665  0291                     	;# 
   666  0292                     	;# 
   667  0293                     	;# 
   668  0294                     	;# 
   669  0295                     	;# 
   670  0295                     	;# 
   671  0296                     	;# 
   672  0298                     	;# 
   673  0298                     	;# 
   674  0299                     	;# 
   675  029A                     	;# 
   676  029B                     	;# 
   677  029C                     	;# 
   678  029C                     	;# 
   679  029D                     	;# 
   680  029E                     	;# 
   681  029F                     	;# 
   682  0311                     	;# 
   683  0311                     	;# 
   684  0312                     	;# 
   685  0313                     	;# 
   686  0314                     	;# 
   687  0315                     	;# 
   688  0315                     	;# 
   689  0316                     	;# 
   690  0318                     	;# 
   691  0318                     	;# 
   692  0319                     	;# 
   693  031A                     	;# 
   694  031C                     	;# 
   695  031C                     	;# 
   696  031D                     	;# 
   697  031E                     	;# 
   698  0394                     	;# 
   699  0395                     	;# 
   700  0396                     	;# 
   701  0415                     	;# 
   702  0416                     	;# 
   703  0417                     	;# 
   704  041C                     	;# 
   705  041D                     	;# 
   706  041E                     	;# 
   707  0791                     	;# 
   708  0792                     	;# 
   709  0793                     	;# 
   710  0794                     	;# 
   711  0795                     	;# 
   712  0798                     	;# 
   713  0799                     	;# 
   714  07A0                     	;# 
   715  07A1                     	;# 
   716  07A3                     	;# 
   717  07A4                     	;# 
   718  07A6                     	;# 
   719  07A7                     	;# 
   720  07A9                     	;# 
   721  07AA                     	;# 
   722  0FE4                     	;# 
   723  0FE5                     	;# 
   724  0FE6                     	;# 
   725  0FE7                     	;# 
   726  0FE8                     	;# 
   727  0FE9                     	;# 
   728  0FEA                     	;# 
   729  0FEB                     	;# 
   730  0FED                     	;# 
   731  0FEE                     	;# 
   732  0FEF                     	;# 
   733  0000                     	;# 
   734  0001                     	;# 
   735  0002                     	;# 
   736  0003                     	;# 
   737  0004                     	;# 
   738  0005                     	;# 
   739  0006                     	;# 
   740  0007                     	;# 
   741  0008                     	;# 
   742  0009                     	;# 
   743  000A                     	;# 
   744  000B                     	;# 
   745  000C                     	;# 
   746  000D                     	;# 
   747  000E                     	;# 
   748  0010                     	;# 
   749  0011                     	;# 
   750  0012                     	;# 
   751  0013                     	;# 
   752  0015                     	;# 
   753  0016                     	;# 
   754  0016                     	;# 
   755  0017                     	;# 
   756  0018                     	;# 
   757  0019                     	;# 
   758  001A                     	;# 
   759  001B                     	;# 
   760  001C                     	;# 
   761  001E                     	;# 
   762  001F                     	;# 
   763  008C                     	;# 
   764  008D                     	;# 
   765  008E                     	;# 
   766  0090                     	;# 
   767  0091                     	;# 
   768  0092                     	;# 
   769  0093                     	;# 
   770  0095                     	;# 
   771  0096                     	;# 
   772  0097                     	;# 
   773  0098                     	;# 
   774  0099                     	;# 
   775  009A                     	;# 
   776  009B                     	;# 
   777  009B                     	;# 
   778  009C                     	;# 
   779  009D                     	;# 
   780  009E                     	;# 
   781  010C                     	;# 
   782  010D                     	;# 
   783  010E                     	;# 
   784  0110                     	;# 
   785  0111                     	;# 
   786  0112                     	;# 
   787  0113                     	;# 
   788  0114                     	;# 
   789  0115                     	;# 
   790  0116                     	;# 
   791  0117                     	;# 
   792  0118                     	;# 
   793  0119                     	;# 
   794  011A                     	;# 
   795  011B                     	;# 
   796  011D                     	;# 
   797  018C                     	;# 
   798  018D                     	;# 
   799  0191                     	;# 
   800  0191                     	;# 
   801  0192                     	;# 
   802  0193                     	;# 
   803  0193                     	;# 
   804  0193                     	;# 
   805  0194                     	;# 
   806  0195                     	;# 
   807  0196                     	;# 
   808  0199                     	;# 
   809  019A                     	;# 
   810  019B                     	;# 
   811  019B                     	;# 
   812  019B                     	;# 
   813  019B                     	;# 
   814  019C                     	;# 
   815  019C                     	;# 
   816  019D                     	;# 
   817  019E                     	;# 
   818  019F                     	;# 
   819  020D                     	;# 
   820  0210                     	;# 
   821  0211                     	;# 
   822  0212                     	;# 
   823  0213                     	;# 
   824  0214                     	;# 
   825  0215                     	;# 
   826  0215                     	;# 
   827  0216                     	;# 
   828  0217                     	;# 
   829  0291                     	;# 
   830  0291                     	;# 
   831  0292                     	;# 
   832  0293                     	;# 
   833  0294                     	;# 
   834  0295                     	;# 
   835  0295                     	;# 
   836  0296                     	;# 
   837  0298                     	;# 
   838  0298                     	;# 
   839  0299                     	;# 
   840  029A                     	;# 
   841  029B                     	;# 
   842  029C                     	;# 
   843  029C                     	;# 
   844  029D                     	;# 
   845  029E                     	;# 
   846  029F                     	;# 
   847  0311                     	;# 
   848  0311                     	;# 
   849  0312                     	;# 
   850  0313                     	;# 
   851  0314                     	;# 
   852  0315                     	;# 
   853  0315                     	;# 
   854  0316                     	;# 
   855  0318                     	;# 
   856  0318                     	;# 
   857  0319                     	;# 
   858  031A                     	;# 
   859  031C                     	;# 
   860  031C                     	;# 
   861  031D                     	;# 
   862  031E                     	;# 
   863  0394                     	;# 
   864  0395                     	;# 
   865  0396                     	;# 
   866  0415                     	;# 
   867  0416                     	;# 
   868  0417                     	;# 
   869  041C                     	;# 
   870  041D                     	;# 
   871  041E                     	;# 
   872  0791                     	;# 
   873  0792                     	;# 
   874  0793                     	;# 
   875  0794                     	;# 
   876  0795                     	;# 
   877  0798                     	;# 
   878  0799                     	;# 
   879  07A0                     	;# 
   880  07A1                     	;# 
   881  07A3                     	;# 
   882  07A4                     	;# 
   883  07A6                     	;# 
   884  07A7                     	;# 
   885  07A9                     	;# 
   886  07AA                     	;# 
   887  0FE4                     	;# 
   888  0FE5                     	;# 
   889  0FE6                     	;# 
   890  0FE7                     	;# 
   891  0FE8                     	;# 
   892  0FE9                     	;# 
   893  0FEA                     	;# 
   894  0FEB                     	;# 
   895  0FED                     	;# 
   896  0FEE                     	;# 
   897  0FEF                     	;# 
   898  0000                     	;# 
   899  0001                     	;# 
   900  0002                     	;# 
   901  0003                     	;# 
   902  0004                     	;# 
   903  0005                     	;# 
   904  0006                     	;# 
   905  0007                     	;# 
   906  0008                     	;# 
   907  0009                     	;# 
   908  000A                     	;# 
   909  000B                     	;# 
   910  000C                     	;# 
   911  000D                     	;# 
   912  000E                     	;# 
   913  0010                     	;# 
   914  0011                     	;# 
   915  0012                     	;# 
   916  0013                     	;# 
   917  0015                     	;# 
   918  0016                     	;# 
   919  0016                     	;# 
   920  0017                     	;# 
   921  0018                     	;# 
   922  0019                     	;# 
   923  001A                     	;# 
   924  001B                     	;# 
   925  001C                     	;# 
   926  001E                     	;# 
   927  001F                     	;# 
   928  008C                     	;# 
   929  008D                     	;# 
   930  008E                     	;# 
   931  0090                     	;# 
   932  0091                     	;# 
   933  0092                     	;# 
   934  0093                     	;# 
   935  0095                     	;# 
   936  0096                     	;# 
   937  0097                     	;# 
   938  0098                     	;# 
   939  0099                     	;# 
   940  009A                     	;# 
   941  009B                     	;# 
   942  009B                     	;# 
   943  009C                     	;# 
   944  009D                     	;# 
   945  009E                     	;# 
   946  010C                     	;# 
   947  010D                     	;# 
   948  010E                     	;# 
   949  0110                     	;# 
   950  0111                     	;# 
   951  0112                     	;# 
   952  0113                     	;# 
   953  0114                     	;# 
   954  0115                     	;# 
   955  0116                     	;# 
   956  0117                     	;# 
   957  0118                     	;# 
   958  0119                     	;# 
   959  011A                     	;# 
   960  011B                     	;# 
   961  011D                     	;# 
   962  018C                     	;# 
   963  018D                     	;# 
   964  0191                     	;# 
   965  0191                     	;# 
   966  0192                     	;# 
   967  0193                     	;# 
   968  0193                     	;# 
   969  0193                     	;# 
   970  0194                     	;# 
   971  0195                     	;# 
   972  0196                     	;# 
   973  0199                     	;# 
   974  019A                     	;# 
   975  019B                     	;# 
   976  019B                     	;# 
   977  019B                     	;# 
   978  019B                     	;# 
   979  019C                     	;# 
   980  019C                     	;# 
   981  019D                     	;# 
   982  019E                     	;# 
   983  019F                     	;# 
   984  020D                     	;# 
   985  0210                     	;# 
   986  0211                     	;# 
   987  0212                     	;# 
   988  0213                     	;# 
   989  0214                     	;# 
   990  0215                     	;# 
   991  0215                     	;# 
   992  0216                     	;# 
   993  0217                     	;# 
   994  0291                     	;# 
   995  0291                     	;# 
   996  0292                     	;# 
   997  0293                     	;# 
   998  0294                     	;# 
   999  0295                     	;# 
  1000  0295                     	;# 
  1001  0296                     	;# 
  1002  0298                     	;# 
  1003  0298                     	;# 
  1004  0299                     	;# 
  1005  029A                     	;# 
  1006  029B                     	;# 
  1007  029C                     	;# 
  1008  029C                     	;# 
  1009  029D                     	;# 
  1010  029E                     	;# 
  1011  029F                     	;# 
  1012  0311                     	;# 
  1013  0311                     	;# 
  1014  0312                     	;# 
  1015  0313                     	;# 
  1016  0314                     	;# 
  1017  0315                     	;# 
  1018  0315                     	;# 
  1019  0316                     	;# 
  1020  0318                     	;# 
  1021  0318                     	;# 
  1022  0319                     	;# 
  1023  031A                     	;# 
  1024  031C                     	;# 
  1025  031C                     	;# 
  1026  031D                     	;# 
  1027  031E                     	;# 
  1028  0394                     	;# 
  1029  0395                     	;# 
  1030  0396                     	;# 
  1031  0415                     	;# 
  1032  0416                     	;# 
  1033  0417                     	;# 
  1034  041C                     	;# 
  1035  041D                     	;# 
  1036  041E                     	;# 
  1037  0791                     	;# 
  1038  0792                     	;# 
  1039  0793                     	;# 
  1040  0794                     	;# 
  1041  0795                     	;# 
  1042  0798                     	;# 
  1043  0799                     	;# 
  1044  07A0                     	;# 
  1045  07A1                     	;# 
  1046  07A3                     	;# 
  1047  07A4                     	;# 
  1048  07A6                     	;# 
  1049  07A7                     	;# 
  1050  07A9                     	;# 
  1051  07AA                     	;# 
  1052  0FE4                     	;# 
  1053  0FE5                     	;# 
  1054  0FE6                     	;# 
  1055  0FE7                     	;# 
  1056  0FE8                     	;# 
  1057  0FE9                     	;# 
  1058  0FEA                     	;# 
  1059  0FEB                     	;# 
  1060  0FED                     	;# 
  1061  0FEE                     	;# 
  1062  0FEF                     	;# 
  1063  0011                     _PIR1bits	set	17
  1064  005F                     _GIE	set	95
  1065  005E                     _PEIE	set	94
  1066  0091                     _PIE1bits	set	145
  1067  0097                     _WDTCON	set	151
  1068  0098                     _OSCTUNE	set	152
  1069  0099                     _OSCCON	set	153
  1070  0095                     _OPTION_REGbits	set	149
  1071  008E                     _TRISC	set	142
  1072  008D                     _TRISB	set	141
  1073  008C                     _TRISA	set	140
  1074  0090                     _TRISE	set	144
  1075  0116                     _BORCON	set	278
  1076  011D                     _APFCON	set	285
  1077  010E                     _LATC	set	270
  1078  010D                     _LATB	set	269
  1079  010C                     _LATA	set	268
  1080  0110                     _LATE	set	272
  1081  0199                     _RCREG	set	409
  1082  019D                     _RCSTAbits	set	413
  1083  019A                     _TXREG	set	410
  1084  019E                     _TXSTAbits	set	414
  1085  019B                     _SPBRG	set	411
  1086  019F                     _BAUDCON	set	415
  1087  019D                     _RCSTA	set	413
  1088  019E                     _TXSTA	set	414
  1089  018C                     _ANSELA	set	396
  1090  018D                     _ANSELB	set	397
  1091  0215                     _SSPCON1bits	set	533
  1092  0214                     _SSPSTATbits	set	532
  1093  0211                     _SSPBUF	set	529
  1094  0216                     _SSPCON2bits	set	534
  1095  0214                     _SSPSTAT	set	532
  1096  0216                     _SSPCON2	set	534
  1097  020D                     _WPUB	set	525
  1098  0210                     _WPUE	set	528
  1099                           
  1100                           	psect	cinit
  1101  0041                     start_initialization:	
  1102                           ; #config settings
  1103                           
  1104  0041                     __initialization:
  1105                           
  1106                           ; Clear objects allocated to BANK0
  1107  0041  0020               	movlb	0	; select bank0
  1108  0042  01C2               	clrf	__pbssBANK0& (0+127)
  1109  0043  01C3               	clrf	(__pbssBANK0+1)& (0+127)
  1110  0044                     end_of_initialization:	
  1111                           ;End of C runtime variable initialization code
  1112                           
  1113  0044                     __end_of__initialization:
  1114  0044  107E               	bcf	int$flags,0	;clear compiler interrupt flag (level 1)
  1115  0045  0020               	movlb	0
  1116  0046  3181  291A         	ljmp	_main	;jump to C main() function
  1117                           
  1118                           	psect	bssBANK0
  1119  0042                     __pbssBANK0:
  1120  0042                     _ch1_ang:
  1121  0042                     	ds	2
  1122                           
  1123                           	psect	cstackCOMMON
  1124  0070                     __pcstackCOMMON:
  1125  0070                     ?_OSCILLATOR_Initialize:
  1126  0070                     ?_WDT_Initialize:	
  1127                           ; 1 bytes @ 0x0
  1128                           
  1129  0070                     ?_init:	
  1130                           ; 1 bytes @ 0x0
  1131                           
  1132  0070                     ?_PIN_MANAGER_Initialize:	
  1133                           ; 1 bytes @ 0x0
  1134                           
  1135  0070                     ?_SYSTEM_Initialize:	
  1136                           ; 1 bytes @ 0x0
  1137                           
  1138  0070                     ?_main:	
  1139                           ; 1 bytes @ 0x0
  1140                           
  1141  0070                     ?_send:	
  1142                           ; 1 bytes @ 0x0
  1143                           
  1144  0070                     ??_send:	
  1145                           ; 1 bytes @ 0x0
  1146                           
  1147  0070                     ?_isr:	
  1148                           ; 1 bytes @ 0x0
  1149                           
  1150  0070                     ?_i2c_wait:	
  1151                           ; 1 bytes @ 0x0
  1152                           
  1153  0070                     ?_i2c_start:	
  1154                           ; 1 bytes @ 0x0
  1155                           
  1156  0070                     ?_i2c_stop:	
  1157                           ; 1 bytes @ 0x0
  1158                           
  1159  0070                     ?_i2c_repeated_start:	
  1160                           ; 1 bytes @ 0x0
  1161                           
  1162  0070                     ?_i2c_write:	
  1163                           ; 1 bytes @ 0x0
  1164                           
  1165  0070                     ?_i2c_read:	
  1166                           ; 1 bytes @ 0x0
  1167                           
  1168  0070                     ?__read:	
  1169                           ; 1 bytes @ 0x0
  1170                           
  1171  0070                     ?i1_i2c_wait:	
  1172                           ; 1 bytes @ 0x0
  1173                           
  1174  0070                     ??i1_i2c_wait:	
  1175                           ; 1 bytes @ 0x0
  1176                           
  1177  0070                     ?i1_i2c_start:	
  1178                           ; 1 bytes @ 0x0
  1179                           
  1180  0070                     ??i1_i2c_start:	
  1181                           ; 1 bytes @ 0x0
  1182                           
  1183  0070                     ?i1_i2c_stop:	
  1184                           ; 1 bytes @ 0x0
  1185                           
  1186  0070                     ??i1_i2c_stop:	
  1187                           ; 1 bytes @ 0x0
  1188                           
  1189  0070                     ?i1_i2c_write:	
  1190                           ; 1 bytes @ 0x0
  1191                           
  1192  0070                     ??i1_i2c_write:	
  1193                           ; 1 bytes @ 0x0
  1194                           
  1195  0070                     ?___wmul:	
  1196                           ; 1 bytes @ 0x0
  1197                           
  1198  0070                     send@data:	
  1199                           ; 2 bytes @ 0x0
  1200                           
  1201  0070                     i1i2c_write@data:	
  1202                           ; 1 bytes @ 0x0
  1203                           
  1204  0070                     ___wmul@multiplier:	
  1205                           ; 1 bytes @ 0x0
  1206                           
  1207                           
  1208                           ; 2 bytes @ 0x0
  1209  0070                     	ds	1
  1210  0071                     ?_set_pwm:
  1211  0071                     set_pwm@on:	
  1212                           ; 1 bytes @ 0x1
  1213                           
  1214                           
  1215                           ; 2 bytes @ 0x1
  1216  0071                     	ds	1
  1217  0072                     ___wmul@multiplicand:
  1218                           
  1219                           ; 2 bytes @ 0x2
  1220  0072                     	ds	1
  1221  0073                     set_pwm@off:
  1222                           
  1223                           ; 2 bytes @ 0x3
  1224  0073                     	ds	1
  1225  0074                     ??___wmul:
  1226  0074                     ___wmul@product:	
  1227                           ; 1 bytes @ 0x4
  1228                           
  1229                           
  1230                           ; 2 bytes @ 0x4
  1231  0074                     	ds	1
  1232  0075                     ??_set_pwm:
  1233                           
  1234                           ; 1 bytes @ 0x5
  1235  0075                     	ds	1
  1236  0076                     ?i1___lwdiv:
  1237  0076                     set_pwm@num:	
  1238                           ; 2 bytes @ 0x6
  1239                           
  1240  0076                     i1___lwdiv@divisor:	
  1241                           ; 1 bytes @ 0x6
  1242                           
  1243                           
  1244                           ; 2 bytes @ 0x6
  1245  0076                     	ds	2
  1246  0078                     i1___lwdiv@dividend:
  1247                           
  1248                           ; 2 bytes @ 0x8
  1249  0078                     	ds	2
  1250  007A                     ??i1___lwdiv:
  1251                           
  1252                           ; 1 bytes @ 0xA
  1253  007A                     	ds	1
  1254  007B                     i1___lwdiv@quotient:
  1255                           
  1256                           ; 2 bytes @ 0xB
  1257  007B                     	ds	2
  1258  007D                     i1___lwdiv@counter:
  1259                           
  1260                           ; 1 bytes @ 0xD
  1261  007D                     	ds	1
  1262  007E                     ??_servo_write:
  1263  007E                     ??_map:	
  1264                           ; 1 bytes @ 0xE
  1265                           
  1266                           
  1267                           	psect	cstackBANK0
  1268  0020                     __pcstackBANK0:	
  1269                           ; 1 bytes @ 0xE
  1270                           
  1271  0020                     ?_map:
  1272  0020                     map@x:	
  1273                           ; 2 bytes @ 0x0
  1274                           
  1275                           
  1276                           ; 2 bytes @ 0x0
  1277  0020                     	ds	2
  1278  0022                     map@in_min:
  1279                           
  1280                           ; 2 bytes @ 0x2
  1281  0022                     	ds	2
  1282  0024                     map@in_max:
  1283                           
  1284                           ; 2 bytes @ 0x4
  1285  0024                     	ds	2
  1286  0026                     map@out_min:
  1287                           
  1288                           ; 2 bytes @ 0x6
  1289  0026                     	ds	2
  1290  0028                     map@out_max:
  1291                           
  1292                           ; 2 bytes @ 0x8
  1293  0028                     	ds	2
  1294  002A                     ?_servo_write:
  1295  002A                     servo_write@ang:	
  1296                           ; 1 bytes @ 0xA
  1297                           
  1298                           
  1299                           ; 2 bytes @ 0xA
  1300  002A                     	ds	2
  1301  002C                     servo_write@ch:
  1302                           
  1303                           ; 1 bytes @ 0xC
  1304  002C                     	ds	1
  1305  002D                     ??_isr:
  1306                           
  1307                           ; 1 bytes @ 0xD
  1308  002D                     	ds	2
  1309  002F                     isr@data:
  1310                           
  1311                           ; 1 bytes @ 0xF
  1312  002F                     	ds	1
  1313  0030                     ??_OSCILLATOR_Initialize:
  1314  0030                     ??_WDT_Initialize:	
  1315                           ; 1 bytes @ 0x10
  1316                           
  1317  0030                     ??_PIN_MANAGER_Initialize:	
  1318                           ; 1 bytes @ 0x10
  1319                           
  1320  0030                     ??_SYSTEM_Initialize:	
  1321                           ; 1 bytes @ 0x10
  1322                           
  1323  0030                     ??_i2c_wait:	
  1324                           ; 1 bytes @ 0x10
  1325                           
  1326  0030                     ??_i2c_start:	
  1327                           ; 1 bytes @ 0x10
  1328                           
  1329  0030                     ??_i2c_stop:	
  1330                           ; 1 bytes @ 0x10
  1331                           
  1332  0030                     ??_i2c_repeated_start:	
  1333                           ; 1 bytes @ 0x10
  1334                           
  1335  0030                     ??_i2c_write:	
  1336                           ; 1 bytes @ 0x10
  1337                           
  1338  0030                     ??_i2c_read:	
  1339                           ; 1 bytes @ 0x10
  1340                           
  1341  0030                     ?___lwdiv:	
  1342                           ; 1 bytes @ 0x10
  1343                           
  1344  0030                     i2c_write@data:	
  1345                           ; 2 bytes @ 0x10
  1346                           
  1347  0030                     ___lwdiv@divisor:	
  1348                           ; 1 bytes @ 0x10
  1349                           
  1350                           
  1351                           ; 2 bytes @ 0x10
  1352  0030                     	ds	1
  1353  0031                     ??_init:
  1354  0031                     ?__write:	
  1355                           ; 1 bytes @ 0x11
  1356                           
  1357  0031                     i2c_read@ack:	
  1358                           ; 1 bytes @ 0x11
  1359                           
  1360  0031                     __write@d:	
  1361                           ; 1 bytes @ 0x11
  1362                           
  1363                           
  1364                           ; 1 bytes @ 0x11
  1365  0031                     	ds	1
  1366  0032                     ??__write:
  1367  0032                     i2c_read@data:	
  1368                           ; 1 bytes @ 0x12
  1369                           
  1370  0032                     __write@addr:	
  1371                           ; 1 bytes @ 0x12
  1372                           
  1373  0032                     ___lwdiv@dividend:	
  1374                           ; 1 bytes @ 0x12
  1375                           
  1376                           
  1377                           ; 2 bytes @ 0x12
  1378  0032                     	ds	1
  1379  0033                     ??__read:
  1380                           
  1381                           ; 1 bytes @ 0x13
  1382  0033                     	ds	1
  1383  0034                     ??___lwdiv:
  1384  0034                     __read@addr:	
  1385                           ; 1 bytes @ 0x14
  1386                           
  1387                           
  1388                           ; 1 bytes @ 0x14
  1389  0034                     	ds	1
  1390  0035                     __read@data:
  1391  0035                     ___lwdiv@quotient:	
  1392                           ; 1 bytes @ 0x15
  1393                           
  1394                           
  1395                           ; 2 bytes @ 0x15
  1396  0035                     	ds	2
  1397  0037                     ___lwdiv@counter:
  1398                           
  1399                           ; 1 bytes @ 0x17
  1400  0037                     	ds	1
  1401  0038                     ?_set_pwm_freq:
  1402  0038                     set_pwm_freq@freq:	
  1403                           ; 1 bytes @ 0x18
  1404                           
  1405                           
  1406                           ; 2 bytes @ 0x18
  1407  0038                     	ds	2
  1408  003A                     ??_set_pwm_freq:
  1409                           
  1410                           ; 1 bytes @ 0x1A
  1411  003A                     	ds	1
  1412  003B                     set_pwm_freq@prescale:
  1413                           
  1414                           ; 1 bytes @ 0x1B
  1415  003B                     	ds	1
  1416  003C                     set_pwm_freq@newreg:
  1417                           
  1418                           ; 1 bytes @ 0x1C
  1419  003C                     	ds	1
  1420  003D                     set_pwm_freq@prescaleval:
  1421                           
  1422                           ; 2 bytes @ 0x1D
  1423  003D                     	ds	2
  1424  003F                     set_pwm_freq@oldreg:
  1425                           
  1426                           ; 1 bytes @ 0x1F
  1427  003F                     	ds	1
  1428  0040                     ??_main:
  1429                           
  1430                           ; 1 bytes @ 0x20
  1431  0040                     	ds	2
  1432                           
  1433                           	psect	maintext
  1434  011A                     __pmaintext:	
  1435 ;;
  1436 ;;Main: autosize = 0, tempsize = 2, incstack = 0, save=0
  1437 ;;
  1438 ;; *************** function _main *****************
  1439 ;; Defined at:
  1440 ;;		line 13 in file "main.c"
  1441 ;; Parameters:    Size  Location     Type
  1442 ;;		None
  1443 ;; Auto vars:     Size  Location     Type
  1444 ;;		None
  1445 ;; Return value:  Size  Location     Type
  1446 ;;                  1    wreg      void 
  1447 ;; Registers used:
  1448 ;;		wreg, status,2, status,0, pclath, cstack
  1449 ;; Tracked objects:
  1450 ;;		On entry : B1F/0
  1451 ;;		On exit  : 0/0
  1452 ;;		Unchanged: 0/0
  1453 ;; Data sizes:     COMMON   BANK0   BANK1   BANK2   BANK3   BANK4   BANK5   BANK6   BANK7   BANK8   BANK9  BANK10  BANK1
      +1  BANK12
  1454 ;;      Params:         0       0       0       0       0       0       0       0       0       0       0       0       
      +0       0
  1455 ;;      Locals:         0       0       0       0       0       0       0       0       0       0       0       0       
      +0       0
  1456 ;;      Temps:          0       2       0       0       0       0       0       0       0       0       0       0       
      +0       0
  1457 ;;      Totals:         0       2       0       0       0       0       0       0       0       0       0       0       
      +0       0
  1458 ;;Total ram usage:        2 bytes
  1459 ;; Hardware stack levels required when called:    9
  1460 ;; This function calls:
  1461 ;;		_SYSTEM_Initialize
  1462 ;;		_init
  1463 ;;		_set_pwm_freq
  1464 ;; This function is called by:
  1465 ;;		Startup code after reset
  1466 ;; This function uses a non-reentrant model
  1467 ;;
  1468                           
  1469                           
  1470                           ;psect for function _main
  1471  011A                     _main:
  1472  011A                     l1298:	
  1473                           ;incstack = 0
  1474                           ; Regs used in _main: [wreg+status,2+status,0+pclath+cstack]
  1475                           
  1476                           
  1477                           ;main.c: 16: SYSTEM_Initialize();
  1478  011A  3182  22B5  3181   	fcall	_SYSTEM_Initialize
  1479  011D                     l1300:
  1480                           
  1481                           ;main.c: 18: ANSELA = 0x0;
  1482  011D  0023               	movlb	3	; select bank3
  1483  011E  018C               	clrf	12	;volatile
  1484  011F                     l1302:
  1485                           
  1486                           ;main.c: 19: ANSELB = 0x0;
  1487  011F  018D               	clrf	13	;volatile
  1488  0120                     l1304:
  1489                           
  1490                           ;main.c: 22: TRISC = 0x4C;
  1491  0120  304C               	movlw	76
  1492  0121  0021               	movlb	1	; select bank1
  1493  0122  008E               	movwf	14	;volatile
  1494  0123                     l1306:
  1495                           
  1496                           ;main.c: 29: TXSTA = 0x02;
  1497  0123  3002               	movlw	2
  1498  0124  0023               	movlb	3	; select bank3
  1499  0125  009E               	movwf	30	;volatile
  1500  0126                     l1308:
  1501                           
  1502                           ;main.c: 31: RCSTA = 0x90;
  1503  0126  3090               	movlw	144
  1504  0127  009D               	movwf	29	;volatile
  1505  0128                     l1310:
  1506                           
  1507                           ;main.c: 33: BAUDCON = 0x08;
  1508  0128  3008               	movlw	8
  1509  0129  009F               	movwf	31	;volatile
  1510  012A                     l1312:
  1511                           
  1512                           ;main.c: 35: SPBRG = 51;
  1513  012A  3033               	movlw	51
  1514  012B  009B               	movwf	27	;volatile
  1515  012C                     l1314:
  1516                           
  1517                           ;main.c: 39: PIR1bits.RCIF = 0;
  1518  012C  0020               	movlb	0	; select bank0
  1519  012D  1291               	bcf	17,5	;volatile
  1520  012E                     l1316:
  1521                           
  1522                           ;main.c: 42: PIE1bits.RCIE = 1;
  1523  012E  0021               	movlb	1	; select bank1
  1524  012F  1691               	bsf	17,5	;volatile
  1525  0130                     l1318:
  1526                           
  1527                           ;main.c: 43: PEIE = 1;
  1528  0130  170B               	bsf	11,6	;volatile
  1529  0131                     l1320:
  1530                           
  1531                           ;main.c: 44: GIE = 1;
  1532  0131  178B               	bsf	11,7	;volatile
  1533  0132                     l1322:
  1534                           
  1535                           ;main.c: 48: _delay((unsigned long)((500)*(8000000/4000.0)));
  1536  0132  3006               	movlw	6
  1537  0133  0020               	movlb	0	; select bank0
  1538  0134  00C1               	movwf	??_main+1
  1539  0135  3013               	movlw	19
  1540  0136  00C0               	movwf	??_main
  1541  0137  30AD               	movlw	173
  1542  0138                     u797:
  1543  0138  0B89               	decfsz	9,f
  1544  0139  2938               	goto	u797
  1545  013A  0BC0               	decfsz	??_main,f
  1546  013B  2938               	goto	u797
  1547  013C  0BC1               	decfsz	??_main+1,f
  1548  013D  2938               	goto	u797
  1549  013E  3200               	nop2
  1550                           
  1551                           ;main.c: 49: init();
  1552  013F  3182  2255  3181   	fcall	_init
  1553                           
  1554                           ;main.c: 51: set_pwm_freq(50);
  1555  0142  3032               	movlw	50
  1556  0143  0020               	movlb	0	; select bank0
  1557  0144  00B8               	movwf	set_pwm_freq@freq
  1558  0145  3000               	movlw	0
  1559  0146  00B9               	movwf	set_pwm_freq@freq+1
  1560  0147  3180  2048  3181   	fcall	_set_pwm_freq
  1561  014A                     l1324:
  1562                           
  1563                           ;main.c: 53: ch1_ang = 0;
  1564  014A  0020               	movlb	0	; select bank0
  1565  014B  01C2               	clrf	_ch1_ang
  1566  014C  01C3               	clrf	_ch1_ang+1
  1567  014D                     l104:	
  1568                           ;main.c: 55: while (1)
  1569                           
  1570  014D                     l105:	
  1571                           ;main.c: 56: {
  1572                           
  1573  014D  294D               	goto	l104
  1574  014E  3180  283F         	ljmp	start
  1575  0150                     __end_of_main:
  1576                           
  1577                           	psect	text1
  1578  0048                     __ptext1:	
  1579 ;; *************** function _set_pwm_freq *****************
  1580 ;; Defined at:
  1581 ;;		line 77 in file "PCA9685.c"
  1582 ;; Parameters:    Size  Location     Type
  1583 ;;  freq            2   24[BANK0 ] unsigned int 
  1584 ;; Auto vars:     Size  Location     Type
  1585 ;;  prescaleval     2   29[BANK0 ] unsigned int 
  1586 ;;  oldreg          1   31[BANK0 ] unsigned char 
  1587 ;;  newreg          1   28[BANK0 ] unsigned char 
  1588 ;;  prescale        1   27[BANK0 ] unsigned char 
  1589 ;; Return value:  Size  Location     Type
  1590 ;;                  1    wreg      void 
  1591 ;; Registers used:
  1592 ;;		wreg, status,2, status,0, pclath, cstack
  1593 ;; Tracked objects:
  1594 ;;		On entry : 0/0
  1595 ;;		On exit  : 0/0
  1596 ;;		Unchanged: 0/0
  1597 ;; Data sizes:     COMMON   BANK0   BANK1   BANK2   BANK3   BANK4   BANK5   BANK6   BANK7   BANK8   BANK9  BANK10  BANK1
      +1  BANK12
  1598 ;;      Params:         0       2       0       0       0       0       0       0       0       0       0       0       
      +0       0
  1599 ;;      Locals:         0       5       0       0       0       0       0       0       0       0       0       0       
      +0       0
  1600 ;;      Temps:          0       1       0       0       0       0       0       0       0       0       0       0       
      +0       0
  1601 ;;      Totals:         0       8       0       0       0       0       0       0       0       0       0       0       
      +0       0
  1602 ;;Total ram usage:        8 bytes
  1603 ;; Hardware stack levels used:    1
  1604 ;; Hardware stack levels required when called:    8
  1605 ;; This function calls:
  1606 ;;		___lwdiv
  1607 ;;		__read
  1608 ;;		__write
  1609 ;; This function is called by:
  1610 ;;		_main
  1611 ;; This function uses a non-reentrant model
  1612 ;;
  1613                           
  1614                           
  1615                           ;psect for function _set_pwm_freq
  1616  0048                     _set_pwm_freq:
  1617  0048                     l1270:	
  1618                           ;incstack = 0
  1619                           ; Regs used in _set_pwm_freq: [wreg+status,2+status,0+pclath+cstack]
  1620                           
  1621                           
  1622                           ;PCA9685.c: 78: uint16_t prescaleval = 6103;
  1623  0048  30D7               	movlw	215
  1624  0049  0020               	movlb	0	; select bank0
  1625  004A  00BD               	movwf	set_pwm_freq@prescaleval
  1626  004B  3017               	movlw	23
  1627  004C  00BE               	movwf	set_pwm_freq@prescaleval+1
  1628  004D                     l1272:
  1629                           
  1630                           ;PCA9685.c: 79: prescaleval /= freq;
  1631  004D  0839               	movf	set_pwm_freq@freq+1,w
  1632  004E  00B1               	movwf	___lwdiv@divisor+1
  1633  004F  0838               	movf	set_pwm_freq@freq,w
  1634  0050  00B0               	movwf	___lwdiv@divisor
  1635  0051  083E               	movf	set_pwm_freq@prescaleval+1,w
  1636  0052  00B3               	movwf	___lwdiv@dividend+1
  1637  0053  083D               	movf	set_pwm_freq@prescaleval,w
  1638  0054  00B2               	movwf	___lwdiv@dividend
  1639  0055  3180  20A1  3180   	fcall	___lwdiv
  1640  0058  0020               	movlb	0	; select bank0
  1641  0059  0831               	movf	?___lwdiv+1,w
  1642  005A  00BE               	movwf	set_pwm_freq@prescaleval+1
  1643  005B  0830               	movf	?___lwdiv,w
  1644  005C  00BD               	movwf	set_pwm_freq@prescaleval
  1645  005D                     l1274:
  1646                           
  1647                           ;PCA9685.c: 80: prescaleval -= 1;
  1648  005D  3001               	movlw	1
  1649  005E  02BD               	subwf	set_pwm_freq@prescaleval,f
  1650  005F  3000               	movlw	0
  1651  0060  3BBE               	subwfb	set_pwm_freq@prescaleval+1,f
  1652  0061                     l1276:
  1653                           
  1654                           ;PCA9685.c: 82: uint8_t prescale = (uint8_t)prescaleval;
  1655  0061  083D               	movf	set_pwm_freq@prescaleval,w
  1656  0062  00BA               	movwf	??_set_pwm_freq
  1657  0063  083A               	movf	??_set_pwm_freq,w
  1658  0064  00BB               	movwf	set_pwm_freq@prescale
  1659  0065                     l1278:
  1660                           
  1661                           ;PCA9685.c: 83: uint8_t oldreg = _read(0x0);
  1662  0065  3000               	movlw	0
  1663  0066  3181  21C6  3180   	fcall	__read
  1664  0069  0020               	movlb	0	; select bank0
  1665  006A  00BA               	movwf	??_set_pwm_freq
  1666  006B  083A               	movf	??_set_pwm_freq,w
  1667  006C  00BF               	movwf	set_pwm_freq@oldreg
  1668  006D                     l1280:
  1669                           
  1670                           ;PCA9685.c: 84: uint8_t newreg = (oldreg & 0x7F) | 0x10;
  1671  006D  083F               	movf	set_pwm_freq@oldreg,w
  1672  006E  397F               	andlw	127
  1673  006F  3810               	iorlw	16
  1674  0070  00BA               	movwf	??_set_pwm_freq
  1675  0071  083A               	movf	??_set_pwm_freq,w
  1676  0072  00BC               	movwf	set_pwm_freq@newreg
  1677  0073                     l1282:
  1678                           
  1679                           ;PCA9685.c: 85: _write(0x0, newreg);
  1680  0073  083C               	movf	set_pwm_freq@newreg,w
  1681  0074  00BA               	movwf	??_set_pwm_freq
  1682  0075  083A               	movf	??_set_pwm_freq,w
  1683  0076  00B1               	movwf	__write@d
  1684  0077  3000               	movlw	0
  1685  0078  3182  223E  3180   	fcall	__write
  1686  007B                     l1284:
  1687                           
  1688                           ;PCA9685.c: 86: _write(0xFE, prescale);
  1689  007B  0020               	movlb	0	; select bank0
  1690  007C  083B               	movf	set_pwm_freq@prescale,w
  1691  007D  00BA               	movwf	??_set_pwm_freq
  1692  007E  083A               	movf	??_set_pwm_freq,w
  1693  007F  00B1               	movwf	__write@d
  1694  0080  30FE               	movlw	254
  1695  0081  3182  223E  3180   	fcall	__write
  1696  0084                     l1286:
  1697                           
  1698                           ;PCA9685.c: 87: _write(0x0, oldreg);
  1699  0084  0020               	movlb	0	; select bank0
  1700  0085  083F               	movf	set_pwm_freq@oldreg,w
  1701  0086  00BA               	movwf	??_set_pwm_freq
  1702  0087  083A               	movf	??_set_pwm_freq,w
  1703  0088  00B1               	movwf	__write@d
  1704  0089  3000               	movlw	0
  1705  008A  3182  223E  3180   	fcall	__write
  1706  008D                     l1288:
  1707                           
  1708                           ;PCA9685.c: 88: _delay((unsigned long)((5)*(8000000/4000.0)));
  1709  008D  300D               	movlw	13
  1710  008E  0020               	movlb	0	; select bank0
  1711  008F  00BA               	movwf	??_set_pwm_freq
  1712  0090  30FB               	movlw	251
  1713  0091                     u807:
  1714  0091  0B89               	decfsz	9,f
  1715  0092  2891               	goto	u807
  1716  0093  0BBA               	decfsz	??_set_pwm_freq,f
  1717  0094  2891               	goto	u807
  1718  0095  3200               	nop2
  1719  0096                     l1290:
  1720                           
  1721                           ;PCA9685.c: 89: _write(0x0, oldreg | 0xA1);
  1722  0096  0020               	movlb	0	; select bank0
  1723  0097  083F               	movf	set_pwm_freq@oldreg,w
  1724  0098  38A1               	iorlw	161
  1725  0099  00BA               	movwf	??_set_pwm_freq
  1726  009A  083A               	movf	??_set_pwm_freq,w
  1727  009B  00B1               	movwf	__write@d
  1728  009C  3000               	movlw	0
  1729  009D  3182  223E  3180   	fcall	__write
  1730  00A0                     l202:
  1731  00A0  0008               	return
  1732  00A1                     __end_of_set_pwm_freq:
  1733                           
  1734                           	psect	text2
  1735  023E                     __ptext2:	
  1736 ;; *************** function __write *****************
  1737 ;; Defined at:
  1738 ;;		line 16 in file "PCA9685.c"
  1739 ;; Parameters:    Size  Location     Type
  1740 ;;  addr            1    wreg     unsigned char 
  1741 ;;  d               1   17[BANK0 ] unsigned char 
  1742 ;; Auto vars:     Size  Location     Type
  1743 ;;  addr            1   18[BANK0 ] unsigned char 
  1744 ;; Return value:  Size  Location     Type
  1745 ;;                  1    wreg      void 
  1746 ;; Registers used:
  1747 ;;		wreg, status,2, status,0, pclath, cstack
  1748 ;; Tracked objects:
  1749 ;;		On entry : 0/0
  1750 ;;		On exit  : 0/0
  1751 ;;		Unchanged: 0/0
  1752 ;; Data sizes:     COMMON   BANK0   BANK1   BANK2   BANK3   BANK4   BANK5   BANK6   BANK7   BANK8   BANK9  BANK10  BANK1
      +1  BANK12
  1753 ;;      Params:         0       1       0       0       0       0       0       0       0       0       0       0       
      +0       0
  1754 ;;      Locals:         0       1       0       0       0       0       0       0       0       0       0       0       
      +0       0
  1755 ;;      Temps:          0       0       0       0       0       0       0       0       0       0       0       0       
      +0       0
  1756 ;;      Totals:         0       2       0       0       0       0       0       0       0       0       0       0       
      +0       0
  1757 ;;Total ram usage:        2 bytes
  1758 ;; Hardware stack levels used:    1
  1759 ;; Hardware stack levels required when called:    7
  1760 ;; This function calls:
  1761 ;;		_i2c_start
  1762 ;;		_i2c_stop
  1763 ;;		_i2c_write
  1764 ;; This function is called by:
  1765 ;;		_set_pwm_freq
  1766 ;; This function uses a non-reentrant model
  1767 ;;
  1768                           
  1769                           
  1770                           ;psect for function __write
  1771  023E                     __write:
  1772                           
  1773                           ;incstack = 0
  1774                           ; Regs used in __write: [wreg+status,2+status,0+pclath+cstack]
  1775                           ;__write@addr stored from wreg
  1776  023E  0020               	movlb	0	; select bank0
  1777  023F  00B2               	movwf	__write@addr
  1778  0240                     l1220:
  1779                           
  1780                           ;PCA9685.c: 17: i2c_start();
  1781  0240  3182  22AB  3182   	fcall	_i2c_start
  1782                           
  1783                           ;PCA9685.c: 18: i2c_write(0x80);
  1784  0243  3080               	movlw	128
  1785  0244  3182  2268  3182   	fcall	_i2c_write
  1786                           
  1787                           ;PCA9685.c: 19: i2c_write(addr);
  1788  0247  0020               	movlb	0	; select bank0
  1789  0248  0832               	movf	__write@addr,w
  1790  0249  3182  2268  3182   	fcall	_i2c_write
  1791                           
  1792                           ;PCA9685.c: 20: i2c_write(d);
  1793  024C  0020               	movlb	0	; select bank0
  1794  024D  0831               	movf	__write@d,w
  1795  024E  3182  2268  3182   	fcall	_i2c_write
  1796  0251                     l1222:
  1797                           
  1798                           ;PCA9685.c: 21: i2c_stop();
  1799  0251  3182  22D2  3182   	fcall	_i2c_stop
  1800  0254                     l190:
  1801  0254  0008               	return
  1802  0255                     __end_of__write:
  1803                           
  1804                           	psect	text3
  1805  01C6                     __ptext3:	
  1806 ;; *************** function __read *****************
  1807 ;; Defined at:
  1808 ;;		line 28 in file "PCA9685.c"
  1809 ;; Parameters:    Size  Location     Type
  1810 ;;  addr            1    wreg     unsigned char 
  1811 ;; Auto vars:     Size  Location     Type
  1812 ;;  addr            1   20[BANK0 ] unsigned char 
  1813 ;;  data            1   21[BANK0 ] unsigned char 
  1814 ;; Return value:  Size  Location     Type
  1815 ;;                  1    wreg      unsigned char 
  1816 ;; Registers used:
  1817 ;;		wreg, status,2, status,0, pclath, cstack
  1818 ;; Tracked objects:
  1819 ;;		On entry : 0/0
  1820 ;;		On exit  : 0/0
  1821 ;;		Unchanged: 0/0
  1822 ;; Data sizes:     COMMON   BANK0   BANK1   BANK2   BANK3   BANK4   BANK5   BANK6   BANK7   BANK8   BANK9  BANK10  BANK1
      +1  BANK12
  1823 ;;      Params:         0       0       0       0       0       0       0       0       0       0       0       0       
      +0       0
  1824 ;;      Locals:         0       2       0       0       0       0       0       0       0       0       0       0       
      +0       0
  1825 ;;      Temps:          0       1       0       0       0       0       0       0       0       0       0       0       
      +0       0
  1826 ;;      Totals:         0       3       0       0       0       0       0       0       0       0       0       0       
      +0       0
  1827 ;;Total ram usage:        3 bytes
  1828 ;; Hardware stack levels used:    1
  1829 ;; Hardware stack levels required when called:    7
  1830 ;; This function calls:
  1831 ;;		_i2c_read
  1832 ;;		_i2c_repeated_start
  1833 ;;		_i2c_start
  1834 ;;		_i2c_stop
  1835 ;;		_i2c_write
  1836 ;; This function is called by:
  1837 ;;		_set_pwm_freq
  1838 ;; This function uses a non-reentrant model
  1839 ;;
  1840                           
  1841                           
  1842                           ;psect for function __read
  1843  01C6                     __read:
  1844                           
  1845                           ;incstack = 0
  1846                           ; Regs used in __read: [wreg+status,2+status,0+pclath+cstack]
  1847                           ;__read@addr stored from wreg
  1848  01C6  0020               	movlb	0	; select bank0
  1849  01C7  00B4               	movwf	__read@addr
  1850  01C8                     l1224:
  1851                           
  1852                           ;PCA9685.c: 29: uint8_t data;;PCA9685.c: 30: i2c_start();
  1853  01C8  3182  22AB  3181   	fcall	_i2c_start
  1854                           
  1855                           ;PCA9685.c: 31: i2c_write(0x80);
  1856  01CB  3080               	movlw	128
  1857  01CC  3182  2268  3181   	fcall	_i2c_write
  1858                           
  1859                           ;PCA9685.c: 32: i2c_write(addr);
  1860  01CF  0020               	movlb	0	; select bank0
  1861  01D0  0834               	movf	__read@addr,w
  1862  01D1  3182  2268  3181   	fcall	_i2c_write
  1863                           
  1864                           ;PCA9685.c: 34: i2c_repeated_start();
  1865  01D4  3182  22A1  3181   	fcall	_i2c_repeated_start
  1866                           
  1867                           ;PCA9685.c: 36: i2c_write(0x80 | 0x01);
  1868  01D7  3081               	movlw	129
  1869  01D8  3182  2268  3181   	fcall	_i2c_write
  1870                           
  1871                           ;PCA9685.c: 37: data = i2c_read(0x0 | 0x01);
  1872  01DB  3001               	movlw	1
  1873  01DC  3182  2208  3181   	fcall	_i2c_read
  1874  01DF  0020               	movlb	0	; select bank0
  1875  01E0  00B3               	movwf	??__read
  1876  01E1  0833               	movf	??__read,w
  1877  01E2  00B5               	movwf	__read@data
  1878  01E3                     l1226:
  1879                           
  1880                           ;PCA9685.c: 38: i2c_stop();
  1881  01E3  3182  22D2  3181   	fcall	_i2c_stop
  1882                           
  1883                           ;PCA9685.c: 40: return data;
  1884  01E6  0020               	movlb	0	; select bank0
  1885  01E7  0835               	movf	__read@data,w
  1886  01E8                     l193:
  1887  01E8  0008               	return
  1888  01E9                     __end_of__read:
  1889                           
  1890                           	psect	text4
  1891  02A1                     __ptext4:	
  1892 ;; *************** function _i2c_repeated_start *****************
  1893 ;; Defined at:
  1894 ;;		line 19 in file "i2c.c"
  1895 ;; Parameters:    Size  Location     Type
  1896 ;;		None
  1897 ;; Auto vars:     Size  Location     Type
  1898 ;;		None
  1899 ;; Return value:  Size  Location     Type
  1900 ;;                  1    wreg      void 
  1901 ;; Registers used:
  1902 ;;		wreg, status,2, status,0, pclath, cstack
  1903 ;; Tracked objects:
  1904 ;;		On entry : 0/0
  1905 ;;		On exit  : 0/0
  1906 ;;		Unchanged: 0/0
  1907 ;; Data sizes:     COMMON   BANK0   BANK1   BANK2   BANK3   BANK4   BANK5   BANK6   BANK7   BANK8   BANK9  BANK10  BANK1
      +1  BANK12
  1908 ;;      Params:         0       0       0       0       0       0       0       0       0       0       0       0       
      +0       0
  1909 ;;      Locals:         0       0       0       0       0       0       0       0       0       0       0       0       
      +0       0
  1910 ;;      Temps:          0       0       0       0       0       0       0       0       0       0       0       0       
      +0       0
  1911 ;;      Totals:         0       0       0       0       0       0       0       0       0       0       0       0       
      +0       0
  1912 ;;Total ram usage:        0 bytes
  1913 ;; Hardware stack levels used:    1
  1914 ;; Hardware stack levels required when called:    6
  1915 ;; This function calls:
  1916 ;;		_i2c_wait
  1917 ;; This function is called by:
  1918 ;;		__read
  1919 ;; This function uses a non-reentrant model
  1920 ;;
  1921                           
  1922                           
  1923                           ;psect for function _i2c_repeated_start
  1924  02A1                     _i2c_repeated_start:
  1925  02A1                     l1124:	
  1926                           ;incstack = 0
  1927                           ; Regs used in _i2c_repeated_start: [wreg+status,2+status,0+pclath+cstack]
  1928                           
  1929                           
  1930                           ;i2c.c: 20: i2c_wait();
  1931  02A1  3182  2289  3182   	fcall	_i2c_wait
  1932  02A4                     l1126:
  1933                           
  1934                           ;i2c.c: 21: SSPCON2bits.RSEN = 1;
  1935  02A4  0024               	movlb	4	; select bank4
  1936  02A5  1496               	bsf	22,1	;volatile
  1937  02A6                     l157:	
  1938                           ;i2c.c: 22: while(SSPCON2bits.RSEN);
  1939                           
  1940  02A6  1896               	btfsc	22,1	;volatile
  1941  02A7  2AA9               	goto	u461
  1942  02A8  2AAA               	goto	u460
  1943  02A9                     u461:
  1944  02A9  2AA6               	goto	l157
  1945  02AA                     u460:
  1946  02AA                     l160:
  1947  02AA  0008               	return
  1948  02AB                     __end_of_i2c_repeated_start:
  1949                           
  1950                           	psect	text5
  1951  0208                     __ptext5:	
  1952 ;; *************** function _i2c_read *****************
  1953 ;; Defined at:
  1954 ;;		line 32 in file "i2c.c"
  1955 ;; Parameters:    Size  Location     Type
  1956 ;;  ack             1    wreg     unsigned char 
  1957 ;; Auto vars:     Size  Location     Type
  1958 ;;  ack             1   17[BANK0 ] unsigned char 
  1959 ;;  data            1   18[BANK0 ] unsigned char 
  1960 ;; Return value:  Size  Location     Type
  1961 ;;                  1    wreg      unsigned char 
  1962 ;; Registers used:
  1963 ;;		wreg, status,2, status,0, pclath, cstack
  1964 ;; Tracked objects:
  1965 ;;		On entry : 0/0
  1966 ;;		On exit  : 0/0
  1967 ;;		Unchanged: 0/0
  1968 ;; Data sizes:     COMMON   BANK0   BANK1   BANK2   BANK3   BANK4   BANK5   BANK6   BANK7   BANK8   BANK9  BANK10  BANK1
      +1  BANK12
  1969 ;;      Params:         0       0       0       0       0       0       0       0       0       0       0       0       
      +0       0
  1970 ;;      Locals:         0       2       0       0       0       0       0       0       0       0       0       0       
      +0       0
  1971 ;;      Temps:          0       1       0       0       0       0       0       0       0       0       0       0       
      +0       0
  1972 ;;      Totals:         0       3       0       0       0       0       0       0       0       0       0       0       
      +0       0
  1973 ;;Total ram usage:        3 bytes
  1974 ;; Hardware stack levels used:    1
  1975 ;; Hardware stack levels required when called:    6
  1976 ;; This function calls:
  1977 ;;		_i2c_wait
  1978 ;; This function is called by:
  1979 ;;		__read
  1980 ;; This function uses a non-reentrant model
  1981 ;;
  1982                           
  1983                           
  1984                           ;psect for function _i2c_read
  1985  0208                     _i2c_read:
  1986                           
  1987                           ;incstack = 0
  1988                           ; Regs used in _i2c_read: [wreg+status,2+status,0+pclath+cstack]
  1989                           ;i2c_read@ack stored from wreg
  1990  0208  0020               	movlb	0	; select bank0
  1991  0209  00B1               	movwf	i2c_read@ack
  1992  020A                     l1132:
  1993                           
  1994                           ;i2c.c: 33: uint8_t data;;i2c.c: 35: SSPCON2bits.ACKDT = ack;
  1995  020A  0C31               	rrf	i2c_read@ack,w
  1996  020B  0024               	movlb	4	; select bank4
  1997  020C  1C03               	skipc
  1998  020D  1296               	bcf	22,5	;volatile
  1999  020E  1803               	skipnc
  2000  020F  1696               	bsf	22,5	;volatile
  2001  0210                     l1134:
  2002                           
  2003                           ;i2c.c: 36: SSPCON2bits.RCEN = 1;
  2004  0210  1596               	bsf	22,3	;volatile
  2005  0211                     l172:	
  2006                           ;i2c.c: 37: while(!SSPSTATbits.BF);
  2007                           
  2008  0211  1C14               	btfss	20,0	;volatile
  2009  0212  2A14               	goto	u491
  2010  0213  2A15               	goto	u490
  2011  0214                     u491:
  2012  0214  2A11               	goto	l172
  2013  0215                     u490:
  2014  0215                     l174:
  2015                           
  2016                           ;i2c.c: 38: SSPCON2bits.ACKEN = 1;
  2017  0215  1616               	bsf	22,4	;volatile
  2018  0216                     l1136:
  2019                           
  2020                           ;i2c.c: 39: data = SSPBUF;
  2021  0216  0811               	movf	17,w	;volatile
  2022  0217  0020               	movlb	0	; select bank0
  2023  0218  00B0               	movwf	??_i2c_read
  2024  0219  0830               	movf	??_i2c_read,w
  2025  021A  00B2               	movwf	i2c_read@data
  2026  021B                     l1138:
  2027                           
  2028                           ;i2c.c: 40: SSPCON1bits.SSPOV = 0;
  2029  021B  0024               	movlb	4	; select bank4
  2030  021C  1315               	bcf	21,6	;volatile
  2031  021D                     l1140:
  2032                           
  2033                           ;i2c.c: 41: i2c_wait();
  2034  021D  3182  2289  3182   	fcall	_i2c_wait
  2035  0220                     l1142:
  2036                           
  2037                           ;i2c.c: 43: return data;
  2038  0220  0020               	movlb	0	; select bank0
  2039  0221  0832               	movf	i2c_read@data,w
  2040  0222                     l175:
  2041  0222  0008               	return
  2042  0223                     __end_of_i2c_read:
  2043                           
  2044                           	psect	text6
  2045  00A1                     __ptext6:	
  2046 ;; *************** function ___lwdiv *****************
  2047 ;; Defined at:
  2048 ;;		line 5 in file "C:\Program Files\Microchip\xc8\v2.30\pic\sources\c90\common\lwdiv.c"
  2049 ;; Parameters:    Size  Location     Type
  2050 ;;  divisor         2   16[BANK0 ] unsigned int 
  2051 ;;  dividend        2   18[BANK0 ] unsigned int 
  2052 ;; Auto vars:     Size  Location     Type
  2053 ;;  quotient        2   21[BANK0 ] unsigned int 
  2054 ;;  counter         1   23[BANK0 ] unsigned char 
  2055 ;; Return value:  Size  Location     Type
  2056 ;;                  2   16[BANK0 ] unsigned int 
  2057 ;; Registers used:
  2058 ;;		wreg, status,2, status,0
  2059 ;; Tracked objects:
  2060 ;;		On entry : 0/0
  2061 ;;		On exit  : 0/0
  2062 ;;		Unchanged: 0/0
  2063 ;; Data sizes:     COMMON   BANK0   BANK1   BANK2   BANK3   BANK4   BANK5   BANK6   BANK7   BANK8   BANK9  BANK10  BANK1
      +1  BANK12
  2064 ;;      Params:         0       4       0       0       0       0       0       0       0       0       0       0       
      +0       0
  2065 ;;      Locals:         0       3       0       0       0       0       0       0       0       0       0       0       
      +0       0
  2066 ;;      Temps:          0       1       0       0       0       0       0       0       0       0       0       0       
      +0       0
  2067 ;;      Totals:         0       8       0       0       0       0       0       0       0       0       0       0       
      +0       0
  2068 ;;Total ram usage:        8 bytes
  2069 ;; Hardware stack levels used:    1
  2070 ;; Hardware stack levels required when called:    5
  2071 ;; This function calls:
  2072 ;;		Nothing
  2073 ;; This function is called by:
  2074 ;;		_set_pwm_freq
  2075 ;; This function uses a non-reentrant model
  2076 ;;
  2077                           
  2078                           
  2079                           ;psect for function ___lwdiv
  2080  00A1                     ___lwdiv:
  2081  00A1                     l1238:	
  2082                           ;incstack = 0
  2083                           ; Regs used in ___lwdiv: [wreg+status,2+status,0]
  2084                           
  2085  00A1  0020               	movlb	0	; select bank0
  2086  00A2  01B5               	clrf	___lwdiv@quotient
  2087  00A3  01B6               	clrf	___lwdiv@quotient+1
  2088  00A4                     l1240:
  2089  00A4  0830               	movf	___lwdiv@divisor,w
  2090  00A5  0431               	iorwf	___lwdiv@divisor+1,w
  2091  00A6  1903               	btfsc	3,2
  2092  00A7  28A9               	goto	u661
  2093  00A8  28AA               	goto	u660
  2094  00A9                     u661:
  2095  00A9  28D9               	goto	l1260
  2096  00AA                     u660:
  2097  00AA                     l1242:
  2098  00AA  01B7               	clrf	___lwdiv@counter
  2099  00AB  0AB7               	incf	___lwdiv@counter,f
  2100  00AC  28B6               	goto	l1248
  2101  00AD                     l1244:
  2102  00AD  3001               	movlw	1
  2103  00AE                     u675:
  2104  00AE  35B0               	lslf	___lwdiv@divisor,f
  2105  00AF  0DB1               	rlf	___lwdiv@divisor+1,f
  2106  00B0  0B89               	decfsz	9,f
  2107  00B1  28AE               	goto	u675
  2108  00B2                     l1246:
  2109  00B2  3001               	movlw	1
  2110  00B3  00B4               	movwf	??___lwdiv
  2111  00B4  0834               	movf	??___lwdiv,w
  2112  00B5  07B7               	addwf	___lwdiv@counter,f
  2113  00B6                     l1248:
  2114  00B6  1FB1               	btfss	___lwdiv@divisor+1,7
  2115  00B7  28B9               	goto	u681
  2116  00B8  28BA               	goto	u680
  2117  00B9                     u681:
  2118  00B9  28AD               	goto	l1244
  2119  00BA                     u680:
  2120  00BA                     l1250:
  2121  00BA  3001               	movlw	1
  2122  00BB                     u695:
  2123  00BB  35B5               	lslf	___lwdiv@quotient,f
  2124  00BC  0DB6               	rlf	___lwdiv@quotient+1,f
  2125  00BD  0B89               	decfsz	9,f
  2126  00BE  28BB               	goto	u695
  2127  00BF  0831               	movf	___lwdiv@divisor+1,w
  2128  00C0  0233               	subwf	___lwdiv@dividend+1,w
  2129  00C1  1D03               	skipz
  2130  00C2  28C5               	goto	u705
  2131  00C3  0830               	movf	___lwdiv@divisor,w
  2132  00C4  0232               	subwf	___lwdiv@dividend,w
  2133  00C5                     u705:
  2134  00C5  1C03               	skipc
  2135  00C6  28C8               	goto	u701
  2136  00C7  28C9               	goto	u700
  2137  00C8                     u701:
  2138  00C8  28CE               	goto	l1256
  2139  00C9                     u700:
  2140  00C9                     l1252:
  2141  00C9  0830               	movf	___lwdiv@divisor,w
  2142  00CA  02B2               	subwf	___lwdiv@dividend,f
  2143  00CB  0831               	movf	___lwdiv@divisor+1,w
  2144  00CC  3BB3               	subwfb	___lwdiv@dividend+1,f
  2145  00CD                     l1254:
  2146  00CD  1435               	bsf	___lwdiv@quotient,0
  2147  00CE                     l1256:
  2148  00CE  3001               	movlw	1
  2149  00CF                     u715:
  2150  00CF  36B1               	lsrf	___lwdiv@divisor+1,f
  2151  00D0  0CB0               	rrf	___lwdiv@divisor,f
  2152  00D1  0B89               	decfsz	9,f
  2153  00D2  28CF               	goto	u715
  2154  00D3                     l1258:
  2155  00D3  3001               	movlw	1
  2156  00D4  02B7               	subwf	___lwdiv@counter,f
  2157  00D5  1D03               	btfss	3,2
  2158  00D6  28D8               	goto	u721
  2159  00D7  28D9               	goto	u720
  2160  00D8                     u721:
  2161  00D8  28BA               	goto	l1250
  2162  00D9                     u720:
  2163  00D9                     l1260:
  2164  00D9  0836               	movf	___lwdiv@quotient+1,w
  2165  00DA  00B1               	movwf	?___lwdiv+1
  2166  00DB  0835               	movf	___lwdiv@quotient,w
  2167  00DC  00B0               	movwf	?___lwdiv
  2168  00DD                     l630:
  2169  00DD  0008               	return
  2170  00DE                     __end_of___lwdiv:
  2171                           
  2172                           	psect	text7
  2173  0255                     __ptext7:	
  2174 ;; *************** function _init *****************
  2175 ;; Defined at:
  2176 ;;		line 46 in file "PCA9685.c"
  2177 ;; Parameters:    Size  Location     Type
  2178 ;;		None
  2179 ;; Auto vars:     Size  Location     Type
  2180 ;;		None
  2181 ;; Return value:  Size  Location     Type
  2182 ;;                  1    wreg      void 
  2183 ;; Registers used:
  2184 ;;		wreg, status,2, status,0, pclath, cstack
  2185 ;; Tracked objects:
  2186 ;;		On entry : 0/0
  2187 ;;		On exit  : 0/0
  2188 ;;		Unchanged: 0/0
  2189 ;; Data sizes:     COMMON   BANK0   BANK1   BANK2   BANK3   BANK4   BANK5   BANK6   BANK7   BANK8   BANK9  BANK10  BANK1
      +1  BANK12
  2190 ;;      Params:         0       0       0       0       0       0       0       0       0       0       0       0       
      +0       0
  2191 ;;      Locals:         0       0       0       0       0       0       0       0       0       0       0       0       
      +0       0
  2192 ;;      Temps:          0       0       0       0       0       0       0       0       0       0       0       0       
      +0       0
  2193 ;;      Totals:         0       0       0       0       0       0       0       0       0       0       0       0       
      +0       0
  2194 ;;Total ram usage:        0 bytes
  2195 ;; Hardware stack levels used:    1
  2196 ;; Hardware stack levels required when called:    7
  2197 ;; This function calls:
  2198 ;;		_i2c_start
  2199 ;;		_i2c_stop
  2200 ;;		_i2c_write
  2201 ;; This function is called by:
  2202 ;;		_main
  2203 ;; This function uses a non-reentrant model
  2204 ;;
  2205                           
  2206                           
  2207                           ;psect for function _init
  2208  0255                     _init:
  2209  0255                     l1266:	
  2210                           ;incstack = 0
  2211                           ; Regs used in _init: [wreg+status,2+status,0+pclath+cstack]
  2212                           
  2213                           
  2214                           ;PCA9685.c: 47: i2c_start();
  2215  0255  3182  22AB  3182   	fcall	_i2c_start
  2216                           
  2217                           ;PCA9685.c: 48: i2c_write(0x80);
  2218  0258  3080               	movlw	128
  2219  0259  3182  2268  3182   	fcall	_i2c_write
  2220                           
  2221                           ;PCA9685.c: 50: i2c_write(0x0);
  2222  025C  3000               	movlw	0
  2223  025D  3182  2268  3182   	fcall	_i2c_write
  2224                           
  2225                           ;PCA9685.c: 51: i2c_write(0x0);
  2226  0260  3000               	movlw	0
  2227  0261  3182  2268  3182   	fcall	_i2c_write
  2228  0264                     l1268:
  2229                           
  2230                           ;PCA9685.c: 53: i2c_stop();
  2231  0264  3182  22D2  3182   	fcall	_i2c_stop
  2232  0267                     l196:
  2233  0267  0008               	return
  2234  0268                     __end_of_init:
  2235                           
  2236                           	psect	text8
  2237  0268                     __ptext8:	
  2238 ;; *************** function _i2c_write *****************
  2239 ;; Defined at:
  2240 ;;		line 25 in file "i2c.c"
  2241 ;; Parameters:    Size  Location     Type
  2242 ;;  data            1    wreg     unsigned char 
  2243 ;; Auto vars:     Size  Location     Type
  2244 ;;  data            1   16[BANK0 ] unsigned char 
  2245 ;; Return value:  Size  Location     Type
  2246 ;;                  1    wreg      void 
  2247 ;; Registers used:
  2248 ;;		wreg, status,2, status,0, pclath, cstack
  2249 ;; Tracked objects:
  2250 ;;		On entry : 0/0
  2251 ;;		On exit  : 0/0
  2252 ;;		Unchanged: 0/0
  2253 ;; Data sizes:     COMMON   BANK0   BANK1   BANK2   BANK3   BANK4   BANK5   BANK6   BANK7   BANK8   BANK9  BANK10  BANK1
      +1  BANK12
  2254 ;;      Params:         0       0       0       0       0       0       0       0       0       0       0       0       
      +0       0
  2255 ;;      Locals:         0       1       0       0       0       0       0       0       0       0       0       0       
      +0       0
  2256 ;;      Temps:          0       0       0       0       0       0       0       0       0       0       0       0       
      +0       0
  2257 ;;      Totals:         0       1       0       0       0       0       0       0       0       0       0       0       
      +0       0
  2258 ;;Total ram usage:        1 bytes
  2259 ;; Hardware stack levels used:    1
  2260 ;; Hardware stack levels required when called:    6
  2261 ;; This function calls:
  2262 ;;		_i2c_wait
  2263 ;; This function is called by:
  2264 ;;		__write
  2265 ;;		__read
  2266 ;;		_init
  2267 ;; This function uses a non-reentrant model
  2268 ;;
  2269                           
  2270                           
  2271                           ;psect for function _i2c_write
  2272  0268                     _i2c_write:
  2273                           
  2274                           ;incstack = 0
  2275                           ; Regs used in _i2c_write: [wreg+status,2+status,0+pclath+cstack]
  2276                           ;i2c_write@data stored from wreg
  2277  0268  0020               	movlb	0	; select bank0
  2278  0269  00B0               	movwf	i2c_write@data
  2279  026A                     l1128:
  2280                           
  2281                           ;i2c.c: 26: SSPBUF = data;
  2282  026A  0830               	movf	i2c_write@data,w
  2283  026B  0024               	movlb	4	; select bank4
  2284  026C  0091               	movwf	17	;volatile
  2285  026D                     l163:	
  2286                           ;i2c.c: 27: while(SSPSTATbits.BF);
  2287                           
  2288  026D  1814               	btfsc	20,0	;volatile
  2289  026E  2A70               	goto	u471
  2290  026F  2A71               	goto	u470
  2291  0270                     u471:
  2292  0270  2A6D               	goto	l163
  2293  0271                     u470:
  2294  0271                     l166:
  2295  0271  1B16               	btfsc	22,6	;volatile
  2296  0272  2A74               	goto	u481
  2297  0273  2A75               	goto	u480
  2298  0274                     u481:
  2299  0274  2A71               	goto	l166
  2300  0275                     u480:
  2301  0275                     l1130:
  2302                           
  2303                           ;i2c.c: 29: i2c_wait();
  2304  0275  3182  2289  3182   	fcall	_i2c_wait
  2305  0278                     l169:
  2306  0278  0008               	return
  2307  0279                     __end_of_i2c_write:
  2308                           
  2309                           	psect	text9
  2310  02D2                     __ptext9:	
  2311 ;; *************** function _i2c_stop *****************
  2312 ;; Defined at:
  2313 ;;		line 14 in file "i2c.c"
  2314 ;; Parameters:    Size  Location     Type
  2315 ;;		None
  2316 ;; Auto vars:     Size  Location     Type
  2317 ;;		None
  2318 ;; Return value:  Size  Location     Type
  2319 ;;                  1    wreg      void 
  2320 ;; Registers used:
  2321 ;;		None
  2322 ;; Tracked objects:
  2323 ;;		On entry : 0/0
  2324 ;;		On exit  : 0/0
  2325 ;;		Unchanged: 0/0
  2326 ;; Data sizes:     COMMON   BANK0   BANK1   BANK2   BANK3   BANK4   BANK5   BANK6   BANK7   BANK8   BANK9  BANK10  BANK1
      +1  BANK12
  2327 ;;      Params:         0       0       0       0       0       0       0       0       0       0       0       0       
      +0       0
  2328 ;;      Locals:         0       0       0       0       0       0       0       0       0       0       0       0       
      +0       0
  2329 ;;      Temps:          0       0       0       0       0       0       0       0       0       0       0       0       
      +0       0
  2330 ;;      Totals:         0       0       0       0       0       0       0       0       0       0       0       0       
      +0       0
  2331 ;;Total ram usage:        0 bytes
  2332 ;; Hardware stack levels used:    1
  2333 ;; Hardware stack levels required when called:    5
  2334 ;; This function calls:
  2335 ;;		Nothing
  2336 ;; This function is called by:
  2337 ;;		__write
  2338 ;;		__read
  2339 ;;		_init
  2340 ;; This function uses a non-reentrant model
  2341 ;;
  2342                           
  2343                           
  2344                           ;psect for function _i2c_stop
  2345  02D2                     _i2c_stop:
  2346  02D2                     l1122:	
  2347                           ;incstack = 0
  2348                           ; Regs used in _i2c_stop: []
  2349                           
  2350                           
  2351                           ;i2c.c: 15: SSPCON2bits.PEN = 1;
  2352  02D2  0024               	movlb	4	; select bank4
  2353  02D3  1516               	bsf	22,2	;volatile
  2354  02D4                     l151:	
  2355                           ;i2c.c: 16: while(SSPCON2bits.PEN);
  2356                           
  2357  02D4  1916               	btfsc	22,2	;volatile
  2358  02D5  2AD7               	goto	u451
  2359  02D6  2AD8               	goto	u450
  2360  02D7                     u451:
  2361  02D7  2AD4               	goto	l151
  2362  02D8                     u450:
  2363  02D8                     l154:
  2364  02D8  0008               	return
  2365  02D9                     __end_of_i2c_stop:
  2366                           
  2367                           	psect	text10
  2368  02AB                     __ptext10:	
  2369 ;; *************** function _i2c_start *****************
  2370 ;; Defined at:
  2371 ;;		line 8 in file "i2c.c"
  2372 ;; Parameters:    Size  Location     Type
  2373 ;;		None
  2374 ;; Auto vars:     Size  Location     Type
  2375 ;;		None
  2376 ;; Return value:  Size  Location     Type
  2377 ;;                  1    wreg      void 
  2378 ;; Registers used:
  2379 ;;		wreg, status,2, status,0, pclath, cstack
  2380 ;; Tracked objects:
  2381 ;;		On entry : 0/0
  2382 ;;		On exit  : 0/0
  2383 ;;		Unchanged: 0/0
  2384 ;; Data sizes:     COMMON   BANK0   BANK1   BANK2   BANK3   BANK4   BANK5   BANK6   BANK7   BANK8   BANK9  BANK10  BANK1
      +1  BANK12
  2385 ;;      Params:         0       0       0       0       0       0       0       0       0       0       0       0       
      +0       0
  2386 ;;      Locals:         0       0       0       0       0       0       0       0       0       0       0       0       
      +0       0
  2387 ;;      Temps:          0       0       0       0       0       0       0       0       0       0       0       0       
      +0       0
  2388 ;;      Totals:         0       0       0       0       0       0       0       0       0       0       0       0       
      +0       0
  2389 ;;Total ram usage:        0 bytes
  2390 ;; Hardware stack levels used:    1
  2391 ;; Hardware stack levels required when called:    6
  2392 ;; This function calls:
  2393 ;;		_i2c_wait
  2394 ;; This function is called by:
  2395 ;;		__write
  2396 ;;		__read
  2397 ;;		_init
  2398 ;; This function uses a non-reentrant model
  2399 ;;
  2400                           
  2401                           
  2402                           ;psect for function _i2c_start
  2403  02AB                     _i2c_start:
  2404  02AB                     l1118:	
  2405                           ;incstack = 0
  2406                           ; Regs used in _i2c_start: [wreg+status,2+status,0+pclath+cstack]
  2407                           
  2408                           
  2409                           ;i2c.c: 9: i2c_wait();
  2410  02AB  3182  2289  3182   	fcall	_i2c_wait
  2411  02AE                     l1120:
  2412                           
  2413                           ;i2c.c: 10: SSPCON2bits.SEN = 1;
  2414  02AE  0024               	movlb	4	; select bank4
  2415  02AF  1416               	bsf	22,0	;volatile
  2416  02B0                     l145:	
  2417                           ;i2c.c: 11: while(SSPCON2bits.SEN);
  2418                           
  2419  02B0  1816               	btfsc	22,0	;volatile
  2420  02B1  2AB3               	goto	u441
  2421  02B2  2AB4               	goto	u440
  2422  02B3                     u441:
  2423  02B3  2AB0               	goto	l145
  2424  02B4                     u440:
  2425  02B4                     l148:
  2426  02B4  0008               	return
  2427  02B5                     __end_of_i2c_start:
  2428                           
  2429                           	psect	text11
  2430  0289                     __ptext11:	
  2431 ;; *************** function _i2c_wait *****************
  2432 ;; Defined at:
  2433 ;;		line 4 in file "i2c.c"
  2434 ;; Parameters:    Size  Location     Type
  2435 ;;		None
  2436 ;; Auto vars:     Size  Location     Type
  2437 ;;		None
  2438 ;; Return value:  Size  Location     Type
  2439 ;;                  1    wreg      void 
  2440 ;; Registers used:
  2441 ;;		wreg, status,2
  2442 ;; Tracked objects:
  2443 ;;		On entry : 0/0
  2444 ;;		On exit  : 0/0
  2445 ;;		Unchanged: 0/0
  2446 ;; Data sizes:     COMMON   BANK0   BANK1   BANK2   BANK3   BANK4   BANK5   BANK6   BANK7   BANK8   BANK9  BANK10  BANK1
      +1  BANK12
  2447 ;;      Params:         0       0       0       0       0       0       0       0       0       0       0       0       
      +0       0
  2448 ;;      Locals:         0       0       0       0       0       0       0       0       0       0       0       0       
      +0       0
  2449 ;;      Temps:          0       0       0       0       0       0       0       0       0       0       0       0       
      +0       0
  2450 ;;      Totals:         0       0       0       0       0       0       0       0       0       0       0       0       
      +0       0
  2451 ;;Total ram usage:        0 bytes
  2452 ;; Hardware stack levels used:    1
  2453 ;; Hardware stack levels required when called:    5
  2454 ;; This function calls:
  2455 ;;		Nothing
  2456 ;; This function is called by:
  2457 ;;		_i2c_start
  2458 ;;		_i2c_repeated_start
  2459 ;;		_i2c_write
  2460 ;;		_i2c_read
  2461 ;; This function uses a non-reentrant model
  2462 ;;
  2463                           
  2464                           
  2465                           ;psect for function _i2c_wait
  2466  0289                     _i2c_wait:
  2467  0289                     l1106:	
  2468                           ;incstack = 0
  2469                           ; Regs used in _i2c_wait: [wreg+status,2]
  2470                           
  2471  0289                     l1108:	
  2472                           ;i2c.c: 5: while((SSPCON2 & 0x1F) || (SSPSTAT & 0x04));
  2473                           
  2474  0289  0024               	movlb	4	; select bank4
  2475  028A  0816               	movf	22,w	;volatile
  2476  028B  391F               	andlw	31
  2477  028C  1D03               	btfss	3,2
  2478  028D  2A8F               	goto	u401
  2479  028E  2A90               	goto	u400
  2480  028F                     u401:
  2481  028F  2A89               	goto	l1108
  2482  0290                     u400:
  2483  0290                     l1110:
  2484  0290  1914               	btfsc	20,2	;volatile
  2485  0291  2A93               	goto	u411
  2486  0292  2A94               	goto	u410
  2487  0293                     u411:
  2488  0293  2A89               	goto	l1108
  2489  0294                     u410:
  2490  0294                     l142:
  2491  0294  0008               	return
  2492  0295                     __end_of_i2c_wait:
  2493                           
  2494                           	psect	text12
  2495  02B5                     __ptext12:	
  2496 ;; *************** function _SYSTEM_Initialize *****************
  2497 ;; Defined at:
  2498 ;;		line 50 in file "mcc_generated_files/mcc.c"
  2499 ;; Parameters:    Size  Location     Type
  2500 ;;		None
  2501 ;; Auto vars:     Size  Location     Type
  2502 ;;		None
  2503 ;; Return value:  Size  Location     Type
  2504 ;;                  1    wreg      void 
  2505 ;; Registers used:
  2506 ;;		wreg, status,2, status,0, pclath, cstack
  2507 ;; Tracked objects:
  2508 ;;		On entry : 0/0
  2509 ;;		On exit  : 0/0
  2510 ;;		Unchanged: 0/0
  2511 ;; Data sizes:     COMMON   BANK0   BANK1   BANK2   BANK3   BANK4   BANK5   BANK6   BANK7   BANK8   BANK9  BANK10  BANK1
      +1  BANK12
  2512 ;;      Params:         0       0       0       0       0       0       0       0       0       0       0       0       
      +0       0
  2513 ;;      Locals:         0       0       0       0       0       0       0       0       0       0       0       0       
      +0       0
  2514 ;;      Temps:          0       0       0       0       0       0       0       0       0       0       0       0       
      +0       0
  2515 ;;      Totals:         0       0       0       0       0       0       0       0       0       0       0       0       
      +0       0
  2516 ;;Total ram usage:        0 bytes
  2517 ;; Hardware stack levels used:    1
  2518 ;; Hardware stack levels required when called:    6
  2519 ;; This function calls:
  2520 ;;		_OSCILLATOR_Initialize
  2521 ;;		_PIN_MANAGER_Initialize
  2522 ;;		_WDT_Initialize
  2523 ;; This function is called by:
  2524 ;;		_main
  2525 ;; This function uses a non-reentrant model
  2526 ;;
  2527                           
  2528                           
  2529                           ;psect for function _SYSTEM_Initialize
  2530  02B5                     _SYSTEM_Initialize:
  2531  02B5                     l1264:	
  2532                           ;incstack = 0
  2533                           ; Regs used in _SYSTEM_Initialize: [wreg+status,2+status,0+pclath+cstack]
  2534                           
  2535                           
  2536                           ;mcc.c: 53: PIN_MANAGER_Initialize();
  2537  02B5  3182  2223  3182   	fcall	_PIN_MANAGER_Initialize
  2538                           
  2539                           ;mcc.c: 54: OSCILLATOR_Initialize();
  2540  02B8  3182  22D9  3182   	fcall	_OSCILLATOR_Initialize
  2541                           
  2542                           ;mcc.c: 55: WDT_Initialize();
  2543  02BB  3182  22E7  3182   	fcall	_WDT_Initialize
  2544  02BE                     l51:
  2545  02BE  0008               	return
  2546  02BF                     __end_of_SYSTEM_Initialize:
  2547                           
  2548                           	psect	text13
  2549  02E7                     __ptext13:	
  2550 ;; *************** function _WDT_Initialize *****************
  2551 ;; Defined at:
  2552 ;;		line 68 in file "mcc_generated_files/mcc.c"
  2553 ;; Parameters:    Size  Location     Type
  2554 ;;		None
  2555 ;; Auto vars:     Size  Location     Type
  2556 ;;		None
  2557 ;; Return value:  Size  Location     Type
  2558 ;;                  1    wreg      void 
  2559 ;; Registers used:
  2560 ;;		wreg
  2561 ;; Tracked objects:
  2562 ;;		On entry : 0/0
  2563 ;;		On exit  : 0/0
  2564 ;;		Unchanged: 0/0
  2565 ;; Data sizes:     COMMON   BANK0   BANK1   BANK2   BANK3   BANK4   BANK5   BANK6   BANK7   BANK8   BANK9  BANK10  BANK1
      +1  BANK12
  2566 ;;      Params:         0       0       0       0       0       0       0       0       0       0       0       0       
      +0       0
  2567 ;;      Locals:         0       0       0       0       0       0       0       0       0       0       0       0       
      +0       0
  2568 ;;      Temps:          0       0       0       0       0       0       0       0       0       0       0       0       
      +0       0
  2569 ;;      Totals:         0       0       0       0       0       0       0       0       0       0       0       0       
      +0       0
  2570 ;;Total ram usage:        0 bytes
  2571 ;; Hardware stack levels used:    1
  2572 ;; Hardware stack levels required when called:    5
  2573 ;; This function calls:
  2574 ;;		Nothing
  2575 ;; This function is called by:
  2576 ;;		_SYSTEM_Initialize
  2577 ;; This function uses a non-reentrant model
  2578 ;;
  2579                           
  2580                           
  2581                           ;psect for function _WDT_Initialize
  2582  02E7                     _WDT_Initialize:
  2583  02E7                     l1218:	
  2584                           ;incstack = 0
  2585                           ; Regs used in _WDT_Initialize: [wreg]
  2586                           
  2587                           
  2588                           ;mcc.c: 71: WDTCON = 0x16;
  2589  02E7  3016               	movlw	22
  2590  02E8  0021               	movlb	1	; select bank1
  2591  02E9  0097               	movwf	23	;volatile
  2592  02EA                     l57:
  2593  02EA  0008               	return
  2594  02EB                     __end_of_WDT_Initialize:
  2595                           
  2596                           	psect	text14
  2597  0223                     __ptext14:	
  2598 ;; *************** function _PIN_MANAGER_Initialize *****************
  2599 ;; Defined at:
  2600 ;;		line 55 in file "mcc_generated_files/pin_manager.c"
  2601 ;; Parameters:    Size  Location     Type
  2602 ;;		None
  2603 ;; Auto vars:     Size  Location     Type
  2604 ;;		None
  2605 ;; Return value:  Size  Location     Type
  2606 ;;                  1    wreg      void 
  2607 ;; Registers used:
  2608 ;;		wreg, status,2
  2609 ;; Tracked objects:
  2610 ;;		On entry : 0/0
  2611 ;;		On exit  : 0/0
  2612 ;;		Unchanged: 0/0
  2613 ;; Data sizes:     COMMON   BANK0   BANK1   BANK2   BANK3   BANK4   BANK5   BANK6   BANK7   BANK8   BANK9  BANK10  BANK1
      +1  BANK12
  2614 ;;      Params:         0       0       0       0       0       0       0       0       0       0       0       0       
      +0       0
  2615 ;;      Locals:         0       0       0       0       0       0       0       0       0       0       0       0       
      +0       0
  2616 ;;      Temps:          0       0       0       0       0       0       0       0       0       0       0       0       
      +0       0
  2617 ;;      Totals:         0       0       0       0       0       0       0       0       0       0       0       0       
      +0       0
  2618 ;;Total ram usage:        0 bytes
  2619 ;; Hardware stack levels used:    1
  2620 ;; Hardware stack levels required when called:    5
  2621 ;; This function calls:
  2622 ;;		Nothing
  2623 ;; This function is called by:
  2624 ;;		_SYSTEM_Initialize
  2625 ;; This function uses a non-reentrant model
  2626 ;;
  2627                           
  2628                           
  2629                           ;psect for function _PIN_MANAGER_Initialize
  2630  0223                     _PIN_MANAGER_Initialize:
  2631  0223                     l1196:	
  2632                           ;incstack = 0
  2633                           ; Regs used in _PIN_MANAGER_Initialize: [wreg+status,2]
  2634                           
  2635                           
  2636                           ;pin_manager.c: 60: LATE = 0x00;
  2637  0223  0022               	movlb	2	; select bank2
  2638  0224  0190               	clrf	16	;volatile
  2639                           
  2640                           ;pin_manager.c: 61: LATA = 0x00;
  2641  0225  018C               	clrf	12	;volatile
  2642                           
  2643                           ;pin_manager.c: 62: LATB = 0x00;
  2644  0226  018D               	clrf	13	;volatile
  2645                           
  2646                           ;pin_manager.c: 63: LATC = 0x00;
  2647  0227  018E               	clrf	14	;volatile
  2648  0228                     l1198:
  2649                           
  2650                           ;pin_manager.c: 68: TRISE = 0x08;
  2651  0228  3008               	movlw	8
  2652  0229  0021               	movlb	1	; select bank1
  2653  022A  0090               	movwf	16	;volatile
  2654  022B                     l1200:
  2655                           
  2656                           ;pin_manager.c: 69: TRISA = 0xFF;
  2657  022B  30FF               	movlw	255
  2658  022C  008C               	movwf	12	;volatile
  2659  022D                     l1202:
  2660                           
  2661                           ;pin_manager.c: 70: TRISB = 0xFF;
  2662  022D  30FF               	movlw	255
  2663  022E  008D               	movwf	13	;volatile
  2664  022F                     l1204:
  2665                           
  2666                           ;pin_manager.c: 71: TRISC = 0xFF;
  2667  022F  30FF               	movlw	255
  2668  0230  008E               	movwf	14	;volatile
  2669  0231                     l1206:
  2670                           
  2671                           ;pin_manager.c: 76: ANSELB = 0x3F;
  2672  0231  303F               	movlw	63
  2673  0232  0023               	movlb	3	; select bank3
  2674  0233  008D               	movwf	13	;volatile
  2675  0234                     l1208:
  2676                           
  2677                           ;pin_manager.c: 77: ANSELA = 0x3F;
  2678  0234  303F               	movlw	63
  2679  0235  008C               	movwf	12	;volatile
  2680                           
  2681                           ;pin_manager.c: 82: WPUE = 0x00;
  2682  0236  0024               	movlb	4	; select bank4
  2683  0237  0190               	clrf	16	;volatile
  2684                           
  2685                           ;pin_manager.c: 83: WPUB = 0x00;
  2686  0238  018D               	clrf	13	;volatile
  2687  0239                     l1210:
  2688                           
  2689                           ;pin_manager.c: 84: OPTION_REGbits.nWPUEN = 1;
  2690  0239  0021               	movlb	1	; select bank1
  2691  023A  1795               	bsf	21,7	;volatile
  2692                           
  2693                           ;pin_manager.c: 90: APFCON = 0x00;
  2694  023B  0022               	movlb	2	; select bank2
  2695  023C  019D               	clrf	29	;volatile
  2696  023D                     l31:
  2697  023D  0008               	return
  2698  023E                     __end_of_PIN_MANAGER_Initialize:
  2699                           
  2700                           	psect	text15
  2701  02D9                     __ptext15:	
  2702 ;; *************** function _OSCILLATOR_Initialize *****************
  2703 ;; Defined at:
  2704 ;;		line 58 in file "mcc_generated_files/mcc.c"
  2705 ;; Parameters:    Size  Location     Type
  2706 ;;		None
  2707 ;; Auto vars:     Size  Location     Type
  2708 ;;		None
  2709 ;; Return value:  Size  Location     Type
  2710 ;;                  1    wreg      void 
  2711 ;; Registers used:
  2712 ;;		wreg, status,2
  2713 ;; Tracked objects:
  2714 ;;		On entry : 0/0
  2715 ;;		On exit  : 0/0
  2716 ;;		Unchanged: 0/0
  2717 ;; Data sizes:     COMMON   BANK0   BANK1   BANK2   BANK3   BANK4   BANK5   BANK6   BANK7   BANK8   BANK9  BANK10  BANK1
      +1  BANK12
  2718 ;;      Params:         0       0       0       0       0       0       0       0       0       0       0       0       
      +0       0
  2719 ;;      Locals:         0       0       0       0       0       0       0       0       0       0       0       0       
      +0       0
  2720 ;;      Temps:          0       0       0       0       0       0       0       0       0       0       0       0       
      +0       0
  2721 ;;      Totals:         0       0       0       0       0       0       0       0       0       0       0       0       
      +0       0
  2722 ;;Total ram usage:        0 bytes
  2723 ;; Hardware stack levels used:    1
  2724 ;; Hardware stack levels required when called:    5
  2725 ;; This function calls:
  2726 ;;		Nothing
  2727 ;; This function is called by:
  2728 ;;		_SYSTEM_Initialize
  2729 ;; This function uses a non-reentrant model
  2730 ;;
  2731                           
  2732                           
  2733                           ;psect for function _OSCILLATOR_Initialize
  2734  02D9                     _OSCILLATOR_Initialize:
  2735  02D9                     l1212:	
  2736                           ;incstack = 0
  2737                           ; Regs used in _OSCILLATOR_Initialize: [wreg+status,2]
  2738                           
  2739                           
  2740                           ;mcc.c: 61: OSCCON = 0x70;
  2741  02D9  3070               	movlw	112
  2742  02DA  0021               	movlb	1	; select bank1
  2743  02DB  0099               	movwf	25	;volatile
  2744  02DC                     l1214:
  2745                           
  2746                           ;mcc.c: 63: OSCTUNE = 0x00;
  2747  02DC  0198               	clrf	24	;volatile
  2748  02DD                     l1216:
  2749                           
  2750                           ;mcc.c: 65: BORCON = 0x00;
  2751  02DD  0022               	movlb	2	; select bank2
  2752  02DE  0196               	clrf	22	;volatile
  2753  02DF                     l54:
  2754  02DF  0008               	return
  2755  02E0                     __end_of_OSCILLATOR_Initialize:
  2756                           
  2757                           	psect	intentry
  2758  0004                     __pintentry:	
  2759 ;; *************** function _isr *****************
  2760 ;; Defined at:
  2761 ;;		line 73 in file "main.c"
  2762 ;; Parameters:    Size  Location     Type
  2763 ;;		None
  2764 ;; Auto vars:     Size  Location     Type
  2765 ;;  data            1   15[BANK0 ] unsigned char 
  2766 ;; Return value:  Size  Location     Type
  2767 ;;                  1    wreg      void 
  2768 ;; Registers used:
  2769 ;;		wreg, status,2, status,0, pclath, cstack
  2770 ;; Tracked objects:
  2771 ;;		On entry : 0/0
  2772 ;;		On exit  : 0/0
  2773 ;;		Unchanged: 0/0
  2774 ;; Data sizes:     COMMON   BANK0   BANK1   BANK2   BANK3   BANK4   BANK5   BANK6   BANK7   BANK8   BANK9  BANK10  BANK1
      +1  BANK12
  2775 ;;      Params:         0       0       0       0       0       0       0       0       0       0       0       0       
      +0       0
  2776 ;;      Locals:         0       1       0       0       0       0       0       0       0       0       0       0       
      +0       0
  2777 ;;      Temps:          0       2       0       0       0       0       0       0       0       0       0       0       
      +0       0
  2778 ;;      Totals:         0       3       0       0       0       0       0       0       0       0       0       0       
      +0       0
  2779 ;;Total ram usage:        3 bytes
  2780 ;; Hardware stack levels used:    1
  2781 ;; Hardware stack levels required when called:    4
  2782 ;; This function calls:
  2783 ;;		_send
  2784 ;;		_servo_write
  2785 ;; This function is called by:
  2786 ;;		Interrupt level 1
  2787 ;; This function uses a non-reentrant model
  2788 ;;
  2789                           
  2790  0004                     _isr:
  2791                           
  2792                           ;incstack = 0
  2793  0004  147E               	bsf	int$flags,0	;set compiler interrupt flag (level 1)
  2794                           
  2795                           ; Regs used in _isr: [wreg+status,2+status,0+pclath+cstack]
  2796  0005  3180               	pagesel	$
  2797  0006                     i1l1326:
  2798                           
  2799                           ;main.c: 74: if(PIR1bits.RCIF){
  2800  0006  0020               	movlb	0	; select bank0
  2801  0007  1E91               	btfss	17,5	;volatile
  2802  0008  280A               	goto	u74_21
  2803  0009  280B               	goto	u74_20
  2804  000A                     u74_21:
  2805  000A  283D               	goto	i1l124
  2806  000B                     u74_20:
  2807  000B                     i1l1328:
  2808                           
  2809                           ;main.c: 76: PIR1bits.RCIF = 0;
  2810  000B  1291               	bcf	17,5	;volatile
  2811                           
  2812                           ;main.c: 78: if((RCSTAbits.OERR) || (RCSTAbits.FERR)){
  2813  000C  0023               	movlb	3	; select bank3
  2814  000D  189D               	btfsc	29,1	;volatile
  2815  000E  2810               	goto	u75_21
  2816  000F  2811               	goto	u75_20
  2817  0010                     u75_21:
  2818  0010  2815               	goto	i1l1332
  2819  0011                     u75_20:
  2820  0011                     i1l1330:
  2821  0011  1D1D               	btfss	29,2	;volatile
  2822  0012  2814               	goto	u76_21
  2823  0013  2815               	goto	u76_20
  2824  0014                     u76_21:
  2825  0014  2819               	goto	i1l1336
  2826  0015                     u76_20:
  2827  0015                     i1l1332:
  2828                           
  2829                           ;main.c: 79: RCSTA = 0;
  2830  0015  019D               	clrf	29	;volatile
  2831  0016                     i1l1334:
  2832                           
  2833                           ;main.c: 80: RCSTA = 0x90;
  2834  0016  3090               	movlw	144
  2835  0017  009D               	movwf	29	;volatile
  2836                           
  2837                           ;main.c: 81: }else{
  2838  0018  283D               	goto	i1l124
  2839  0019                     i1l1336:
  2840                           
  2841                           ;main.c: 83: uint8_t data = RCREG;
  2842  0019  0819               	movf	25,w	;volatile
  2843  001A  0020               	movlb	0	; select bank0
  2844  001B  00AD               	movwf	??_isr
  2845  001C  082D               	movf	??_isr,w
  2846  001D  00AF               	movwf	isr@data
  2847  001E                     i1l1338:
  2848                           
  2849                           ;main.c: 84: send(data);
  2850  001E  082F               	movf	isr@data,w
  2851  001F  3182  22C9  3180   	fcall	_send
  2852  0022                     i1l1340:
  2853                           
  2854                           ;main.c: 85: if(data > 0 && data < 180){
  2855  0022  0020               	movlb	0	; select bank0
  2856  0023  082F               	movf	isr@data,w
  2857  0024  1903               	btfsc	3,2
  2858  0025  2827               	goto	u77_21
  2859  0026  2828               	goto	u77_20
  2860  0027                     u77_21:
  2861  0027  283D               	goto	i1l124
  2862  0028                     u77_20:
  2863  0028                     i1l1342:
  2864  0028  30B4               	movlw	180
  2865  0029  022F               	subwf	isr@data,w
  2866  002A  1803               	skipnc
  2867  002B  282D               	goto	u78_21
  2868  002C  282E               	goto	u78_20
  2869  002D                     u78_21:
  2870  002D  283D               	goto	i1l124
  2871  002E                     u78_20:
  2872  002E                     i1l1344:
  2873                           
  2874                           ;main.c: 86: ch1_ang = data;
  2875  002E  082F               	movf	isr@data,w
  2876  002F  00AD               	movwf	??_isr
  2877  0030  01AE               	clrf	??_isr+1
  2878  0031  082D               	movf	??_isr,w
  2879  0032  00C2               	movwf	_ch1_ang
  2880  0033  082E               	movf	??_isr+1,w
  2881  0034  00C3               	movwf	_ch1_ang+1
  2882  0035                     i1l1346:
  2883                           
  2884                           ;main.c: 87: servo_write(0, ch1_ang);
  2885  0035  0843               	movf	_ch1_ang+1,w
  2886  0036  00AB               	movwf	servo_write@ang+1
  2887  0037  0842               	movf	_ch1_ang,w
  2888  0038  00AA               	movwf	servo_write@ang
  2889  0039  3000               	movlw	0
  2890  003A  3181  2150  3180   	fcall	_servo_write
  2891  003D                     i1l124:
  2892  003D  107E               	bcf	int$flags,0	;clear compiler interrupt flag (level 1)
  2893  003E  0009               	retfie
  2894  003F                     __end_of_isr:
  2895                           
  2896                           	psect	text17
  2897  0150                     __ptext17:	
  2898 ;; *************** function _servo_write *****************
  2899 ;; Defined at:
  2900 ;;		line 103 in file "PCA9685.c"
  2901 ;; Parameters:    Size  Location     Type
  2902 ;;  ch              1    wreg     unsigned char 
  2903 ;;  ang             2   10[BANK0 ] unsigned int 
  2904 ;; Auto vars:     Size  Location     Type
  2905 ;;  ch              1   12[BANK0 ] unsigned char 
  2906 ;; Return value:  Size  Location     Type
  2907 ;;                  1    wreg      void 
  2908 ;; Registers used:
  2909 ;;		wreg, status,2, status,0, pclath, cstack
  2910 ;; Tracked objects:
  2911 ;;		On entry : 0/0
  2912 ;;		On exit  : 0/0
  2913 ;;		Unchanged: 0/0
  2914 ;; Data sizes:     COMMON   BANK0   BANK1   BANK2   BANK3   BANK4   BANK5   BANK6   BANK7   BANK8   BANK9  BANK10  BANK1
      +1  BANK12
  2915 ;;      Params:         0       2       0       0       0       0       0       0       0       0       0       0       
      +0       0
  2916 ;;      Locals:         0       1       0       0       0       0       0       0       0       0       0       0       
      +0       0
  2917 ;;      Temps:          0       0       0       0       0       0       0       0       0       0       0       0       
      +0       0
  2918 ;;      Totals:         0       3       0       0       0       0       0       0       0       0       0       0       
      +0       0
  2919 ;;Total ram usage:        3 bytes
  2920 ;; Hardware stack levels used:    1
  2921 ;; Hardware stack levels required when called:    3
  2922 ;; This function calls:
  2923 ;;		_map
  2924 ;;		_set_pwm
  2925 ;; This function is called by:
  2926 ;;		_isr
  2927 ;; This function uses a non-reentrant model
  2928 ;;
  2929                           
  2930                           
  2931                           ;psect for function _servo_write
  2932  0150                     _servo_write:
  2933                           
  2934                           ;incstack = 0
  2935                           ; Regs used in _servo_write: [wreg+status,2+status,0+pclath+cstack]
  2936                           ;servo_write@ch stored from wreg
  2937  0150  0020               	movlb	0	; select bank0
  2938  0151  00AC               	movwf	servo_write@ch
  2939  0152                     i1l1296:
  2940                           
  2941                           ;PCA9685.c: 104: ang = map(ang, 0, 180, 150, 500);
  2942  0152  082B               	movf	servo_write@ang+1,w
  2943  0153  00A1               	movwf	map@x+1
  2944  0154  082A               	movf	servo_write@ang,w
  2945  0155  00A0               	movwf	map@x
  2946  0156  3000               	movlw	0
  2947  0157  00A2               	movwf	map@in_min
  2948  0158  00A3               	movwf	map@in_min+1
  2949  0159  30B4               	movlw	180
  2950  015A  00A4               	movwf	map@in_max
  2951  015B  3000               	movlw	0
  2952  015C  00A5               	movwf	map@in_max+1
  2953  015D  3096               	movlw	150
  2954  015E  00A6               	movwf	map@out_min
  2955  015F  3000               	movlw	0
  2956  0160  00A7               	movwf	map@out_min+1
  2957  0161  30F4               	movlw	244
  2958  0162  00A8               	movwf	map@out_max
  2959  0163  3001               	movlw	1
  2960  0164  00A9               	movwf	map@out_max+1
  2961  0165  3181  21A1  3181   	fcall	_map
  2962  0168  0020               	movlb	0	; select bank0
  2963  0169  0821               	movf	?_map+1,w
  2964  016A  00AB               	movwf	servo_write@ang+1
  2965  016B  0820               	movf	?_map,w
  2966  016C  00AA               	movwf	servo_write@ang
  2967                           
  2968                           ;PCA9685.c: 105: set_pwm(ch, 0, ang);
  2969  016D  3000               	movlw	0
  2970  016E  00F1               	movwf	set_pwm@on
  2971  016F  00F2               	movwf	set_pwm@on+1
  2972  0170  082B               	movf	servo_write@ang+1,w
  2973  0171  00F4               	movwf	set_pwm@off+1
  2974  0172  082A               	movf	servo_write@ang,w
  2975  0173  00F3               	movwf	set_pwm@off
  2976  0174  082C               	movf	servo_write@ch,w
  2977  0175  3181  2179  3181   	fcall	_set_pwm
  2978  0178                     i1l208:
  2979  0178  0008               	return
  2980  0179                     __end_of_servo_write:
  2981                           
  2982                           	psect	text18
  2983  0179                     __ptext18:	
  2984 ;; *************** function _set_pwm *****************
  2985 ;; Defined at:
  2986 ;;		line 62 in file "PCA9685.c"
  2987 ;; Parameters:    Size  Location     Type
  2988 ;;  num             1    wreg     unsigned char 
  2989 ;;  on              2    1[COMMON] unsigned int 
  2990 ;;  off             2    3[COMMON] unsigned int 
  2991 ;; Auto vars:     Size  Location     Type
  2992 ;;  num             1    6[COMMON] unsigned char 
  2993 ;; Return value:  Size  Location     Type
  2994 ;;                  1    wreg      void 
  2995 ;; Registers used:
  2996 ;;		wreg, status,2, status,0, pclath, cstack
  2997 ;; Tracked objects:
  2998 ;;		On entry : 0/0
  2999 ;;		On exit  : 0/0
  3000 ;;		Unchanged: 0/0
  3001 ;; Data sizes:     COMMON   BANK0   BANK1   BANK2   BANK3   BANK4   BANK5   BANK6   BANK7   BANK8   BANK9  BANK10  BANK1
      +1  BANK12
  3002 ;;      Params:         4       0       0       0       0       0       0       0       0       0       0       0       
      +0       0
  3003 ;;      Locals:         1       0       0       0       0       0       0       0       0       0       0       0       
      +0       0
  3004 ;;      Temps:          1       0       0       0       0       0       0       0       0       0       0       0       
      +0       0
  3005 ;;      Totals:         6       0       0       0       0       0       0       0       0       0       0       0       
      +0       0
  3006 ;;Total ram usage:        6 bytes
  3007 ;; Hardware stack levels used:    1
  3008 ;; Hardware stack levels required when called:    2
  3009 ;; This function calls:
  3010 ;;		i1_i2c_start
  3011 ;;		i1_i2c_stop
  3012 ;;		i1_i2c_write
  3013 ;; This function is called by:
  3014 ;;		_servo_write
  3015 ;; This function uses a non-reentrant model
  3016 ;;
  3017                           
  3018                           
  3019                           ;psect for function _set_pwm
  3020  0179                     _set_pwm:
  3021                           
  3022                           ;incstack = 0
  3023                           ; Regs used in _set_pwm: [wreg+status,2+status,0+pclath+cstack]
  3024                           ;set_pwm@num stored from wreg
  3025  0179  00F6               	movwf	set_pwm@num
  3026  017A                     i1l1230:
  3027                           
  3028                           ;PCA9685.c: 63: i2c_start();
  3029  017A  3182  22BF  3181   	fcall	i1_i2c_start
  3030                           
  3031                           ;PCA9685.c: 64: i2c_write(0x80);
  3032  017D  3080               	movlw	128
  3033  017E  3182  2279  3181   	fcall	i1_i2c_write
  3034                           
  3035                           ;PCA9685.c: 65: i2c_write(0x06 + 4 * num);
  3036  0181  0876               	movf	set_pwm@num,w
  3037  0182  00F5               	movwf	??_set_pwm
  3038  0183  3001               	movlw	1
  3039  0184                     u65_25:
  3040  0184  35F5               	lslf	??_set_pwm,f
  3041  0185  3EFF               	addlw	-1
  3042  0186  1D03               	skipz
  3043  0187  2984               	goto	u65_25
  3044  0188  3575               	lslf	??_set_pwm,w
  3045  0189  3E06               	addlw	6
  3046  018A  3182  2279  3181   	fcall	i1_i2c_write
  3047                           
  3048                           ;PCA9685.c: 66: i2c_write(on);
  3049  018D  0871               	movf	set_pwm@on,w
  3050  018E  3182  2279  3181   	fcall	i1_i2c_write
  3051                           
  3052                           ;PCA9685.c: 67: i2c_write(on >> 8);
  3053  0191  0872               	movf	set_pwm@on+1,w
  3054  0192  3182  2279  3181   	fcall	i1_i2c_write
  3055                           
  3056                           ;PCA9685.c: 68: i2c_write(off);
  3057  0195  0873               	movf	set_pwm@off,w
  3058  0196  3182  2279  3181   	fcall	i1_i2c_write
  3059                           
  3060                           ;PCA9685.c: 69: i2c_write(off >> 8);
  3061  0199  0874               	movf	set_pwm@off+1,w
  3062  019A  3182  2279  3181   	fcall	i1_i2c_write
  3063  019D                     i1l1232:
  3064                           
  3065                           ;PCA9685.c: 70: i2c_stop();
  3066  019D  3182  22E0  3181   	fcall	i1_i2c_stop
  3067  01A0                     i1l199:
  3068  01A0  0008               	return
  3069  01A1                     __end_of_set_pwm:
  3070                           
  3071                           	psect	text19
  3072  0279                     __ptext19:	
  3073 ;; *************** function i1_i2c_write *****************
  3074 ;; Defined at:
  3075 ;;		line 25 in file "i2c.c"
  3076 ;; Parameters:    Size  Location     Type
  3077 ;;  data            1    wreg     unsigned char 
  3078 ;; Auto vars:     Size  Location     Type
  3079 ;;  data            1    0[COMMON] unsigned char 
  3080 ;; Return value:  Size  Location     Type
  3081 ;;                  1    wreg      void 
  3082 ;; Registers used:
  3083 ;;		wreg, status,2, status,0, pclath, cstack
  3084 ;; Tracked objects:
  3085 ;;		On entry : 0/0
  3086 ;;		On exit  : 0/0
  3087 ;;		Unchanged: 0/0
  3088 ;; Data sizes:     COMMON   BANK0   BANK1   BANK2   BANK3   BANK4   BANK5   BANK6   BANK7   BANK8   BANK9  BANK10  BANK1
      +1  BANK12
  3089 ;;      Params:         0       0       0       0       0       0       0       0       0       0       0       0       
      +0       0
  3090 ;;      Locals:         1       0       0       0       0       0       0       0       0       0       0       0       
      +0       0
  3091 ;;      Temps:          0       0       0       0       0       0       0       0       0       0       0       0       
      +0       0
  3092 ;;      Totals:         1       0       0       0       0       0       0       0       0       0       0       0       
      +0       0
  3093 ;;Total ram usage:        1 bytes
  3094 ;; Hardware stack levels used:    1
  3095 ;; Hardware stack levels required when called:    1
  3096 ;; This function calls:
  3097 ;;		i1_i2c_wait
  3098 ;; This function is called by:
  3099 ;;		_set_pwm
  3100 ;; This function uses a non-reentrant model
  3101 ;;
  3102                           
  3103                           
  3104                           ;psect for function i1_i2c_write
  3105  0279                     i1_i2c_write:
  3106                           
  3107                           ;incstack = 0
  3108                           ; Regs used in i1_i2c_write: [wreg+status,2+status,0+pclath+cstack]
  3109                           ;i1i2c_write@data stored from wreg
  3110  0279  00F0               	movwf	i1i2c_write@data
  3111  027A                     i1l1166:
  3112                           
  3113                           ;i2c.c: 26: SSPBUF = data;
  3114  027A  0870               	movf	i1i2c_write@data,w
  3115  027B  0024               	movlb	4	; select bank4
  3116  027C  0091               	movwf	17	;volatile
  3117  027D                     i1l163:	
  3118                           ;i2c.c: 27: while(SSPSTATbits.BF);
  3119                           
  3120  027D  1814               	btfsc	20,0	;volatile
  3121  027E  2A80               	goto	u56_21
  3122  027F  2A81               	goto	u56_20
  3123  0280                     u56_21:
  3124  0280  2A7D               	goto	i1l163
  3125  0281                     u56_20:
  3126  0281                     i1l166:
  3127  0281  1B16               	btfsc	22,6	;volatile
  3128  0282  2A84               	goto	u57_21
  3129  0283  2A85               	goto	u57_20
  3130  0284                     u57_21:
  3131  0284  2A81               	goto	i1l166
  3132  0285                     u57_20:
  3133  0285                     i1l1168:
  3134                           
  3135                           ;i2c.c: 29: i2c_wait();
  3136  0285  3182  2295  3182   	fcall	i1_i2c_wait
  3137  0288                     i1l169:
  3138  0288  0008               	return
  3139  0289                     __end_ofi1_i2c_write:
  3140                           
  3141                           	psect	text20
  3142  02E0                     __ptext20:	
  3143 ;; *************** function i1_i2c_stop *****************
  3144 ;; Defined at:
  3145 ;;		line 14 in file "i2c.c"
  3146 ;; Parameters:    Size  Location     Type
  3147 ;;		None
  3148 ;; Auto vars:     Size  Location     Type
  3149 ;;		None
  3150 ;; Return value:  Size  Location     Type
  3151 ;;                  1    wreg      void 
  3152 ;; Registers used:
  3153 ;;		None
  3154 ;; Tracked objects:
  3155 ;;		On entry : 0/0
  3156 ;;		On exit  : 0/0
  3157 ;;		Unchanged: 0/0
  3158 ;; Data sizes:     COMMON   BANK0   BANK1   BANK2   BANK3   BANK4   BANK5   BANK6   BANK7   BANK8   BANK9  BANK10  BANK1
      +1  BANK12
  3159 ;;      Params:         0       0       0       0       0       0       0       0       0       0       0       0       
      +0       0
  3160 ;;      Locals:         0       0       0       0       0       0       0       0       0       0       0       0       
      +0       0
  3161 ;;      Temps:          0       0       0       0       0       0       0       0       0       0       0       0       
      +0       0
  3162 ;;      Totals:         0       0       0       0       0       0       0       0       0       0       0       0       
      +0       0
  3163 ;;Total ram usage:        0 bytes
  3164 ;; Hardware stack levels used:    1
  3165 ;; This function calls:
  3166 ;;		Nothing
  3167 ;; This function is called by:
  3168 ;;		_set_pwm
  3169 ;; This function uses a non-reentrant model
  3170 ;;
  3171                           
  3172                           
  3173                           ;psect for function i1_i2c_stop
  3174  02E0                     i1_i2c_stop:
  3175  02E0                     i1l1164:	
  3176                           ;incstack = 0
  3177                           ; Regs used in i1_i2c_stop: []
  3178                           
  3179                           
  3180                           ;i2c.c: 15: SSPCON2bits.PEN = 1;
  3181  02E0  0024               	movlb	4	; select bank4
  3182  02E1  1516               	bsf	22,2	;volatile
  3183  02E2                     i1l151:	
  3184                           ;i2c.c: 16: while(SSPCON2bits.PEN);
  3185                           
  3186  02E2  1916               	btfsc	22,2	;volatile
  3187  02E3  2AE5               	goto	u55_21
  3188  02E4  2AE6               	goto	u55_20
  3189  02E5                     u55_21:
  3190  02E5  2AE2               	goto	i1l151
  3191  02E6                     u55_20:
  3192  02E6                     i1l154:
  3193  02E6  0008               	return
  3194  02E7                     __end_ofi1_i2c_stop:
  3195                           
  3196                           	psect	text21
  3197  02BF                     __ptext21:	
  3198 ;; *************** function i1_i2c_start *****************
  3199 ;; Defined at:
  3200 ;;		line 8 in file "i2c.c"
  3201 ;; Parameters:    Size  Location     Type
  3202 ;;		None
  3203 ;; Auto vars:     Size  Location     Type
  3204 ;;		None
  3205 ;; Return value:  Size  Location     Type
  3206 ;;                  1    wreg      void 
  3207 ;; Registers used:
  3208 ;;		wreg, status,2, status,0, pclath, cstack
  3209 ;; Tracked objects:
  3210 ;;		On entry : 0/0
  3211 ;;		On exit  : 0/0
  3212 ;;		Unchanged: 0/0
  3213 ;; Data sizes:     COMMON   BANK0   BANK1   BANK2   BANK3   BANK4   BANK5   BANK6   BANK7   BANK8   BANK9  BANK10  BANK1
      +1  BANK12
  3214 ;;      Params:         0       0       0       0       0       0       0       0       0       0       0       0       
      +0       0
  3215 ;;      Locals:         0       0       0       0       0       0       0       0       0       0       0       0       
      +0       0
  3216 ;;      Temps:          0       0       0       0       0       0       0       0       0       0       0       0       
      +0       0
  3217 ;;      Totals:         0       0       0       0       0       0       0       0       0       0       0       0       
      +0       0
  3218 ;;Total ram usage:        0 bytes
  3219 ;; Hardware stack levels used:    1
  3220 ;; Hardware stack levels required when called:    1
  3221 ;; This function calls:
  3222 ;;		i1_i2c_wait
  3223 ;; This function is called by:
  3224 ;;		_set_pwm
  3225 ;; This function uses a non-reentrant model
  3226 ;;
  3227                           
  3228                           
  3229                           ;psect for function i1_i2c_start
  3230  02BF                     i1_i2c_start:
  3231  02BF                     i1l1160:	
  3232                           ;incstack = 0
  3233                           ; Regs used in i1_i2c_start: [wreg+status,2+status,0+pclath+cstack]
  3234                           
  3235                           
  3236                           ;i2c.c: 9: i2c_wait();
  3237  02BF  3182  2295  3182   	fcall	i1_i2c_wait
  3238  02C2                     i1l1162:
  3239                           
  3240                           ;i2c.c: 10: SSPCON2bits.SEN = 1;
  3241  02C2  0024               	movlb	4	; select bank4
  3242  02C3  1416               	bsf	22,0	;volatile
  3243  02C4                     i1l145:	
  3244                           ;i2c.c: 11: while(SSPCON2bits.SEN);
  3245                           
  3246  02C4  1816               	btfsc	22,0	;volatile
  3247  02C5  2AC7               	goto	u54_21
  3248  02C6  2AC8               	goto	u54_20
  3249  02C7                     u54_21:
  3250  02C7  2AC4               	goto	i1l145
  3251  02C8                     u54_20:
  3252  02C8                     i1l148:
  3253  02C8  0008               	return
  3254  02C9                     __end_ofi1_i2c_start:
  3255                           
  3256                           	psect	text22
  3257  0295                     __ptext22:	
  3258 ;; *************** function i1_i2c_wait *****************
  3259 ;; Defined at:
  3260 ;;		line 4 in file "i2c.c"
  3261 ;; Parameters:    Size  Location     Type
  3262 ;;		None
  3263 ;; Auto vars:     Size  Location     Type
  3264 ;;		None
  3265 ;; Return value:  Size  Location     Type
  3266 ;;                  1    wreg      void 
  3267 ;; Registers used:
  3268 ;;		wreg, status,2
  3269 ;; Tracked objects:
  3270 ;;		On entry : 0/0
  3271 ;;		On exit  : 0/0
  3272 ;;		Unchanged: 0/0
  3273 ;; Data sizes:     COMMON   BANK0   BANK1   BANK2   BANK3   BANK4   BANK5   BANK6   BANK7   BANK8   BANK9  BANK10  BANK1
      +1  BANK12
  3274 ;;      Params:         0       0       0       0       0       0       0       0       0       0       0       0       
      +0       0
  3275 ;;      Locals:         0       0       0       0       0       0       0       0       0       0       0       0       
      +0       0
  3276 ;;      Temps:          0       0       0       0       0       0       0       0       0       0       0       0       
      +0       0
  3277 ;;      Totals:         0       0       0       0       0       0       0       0       0       0       0       0       
      +0       0
  3278 ;;Total ram usage:        0 bytes
  3279 ;; Hardware stack levels used:    1
  3280 ;; This function calls:
  3281 ;;		Nothing
  3282 ;; This function is called by:
  3283 ;;		i1_i2c_start
  3284 ;;		i1_i2c_write
  3285 ;; This function uses a non-reentrant model
  3286 ;;
  3287                           
  3288                           
  3289                           ;psect for function i1_i2c_wait
  3290  0295                     i1_i2c_wait:
  3291  0295                     i1l1112:	
  3292                           ;incstack = 0
  3293                           ; Regs used in i1_i2c_wait: [wreg+status,2]
  3294                           
  3295  0295                     i1l1114:	
  3296                           ;i2c.c: 5: while((SSPCON2 & 0x1F) || (SSPSTAT & 0x04));
  3297                           
  3298  0295  0024               	movlb	4	; select bank4
  3299  0296  0816               	movf	22,w	;volatile
  3300  0297  391F               	andlw	31
  3301  0298  1D03               	btfss	3,2
  3302  0299  2A9B               	goto	u42_21
  3303  029A  2A9C               	goto	u42_20
  3304  029B                     u42_21:
  3305  029B  2A95               	goto	i1l1114
  3306  029C                     u42_20:
  3307  029C                     i1l1116:
  3308  029C  1914               	btfsc	20,2	;volatile
  3309  029D  2A9F               	goto	u43_21
  3310  029E  2AA0               	goto	u43_20
  3311  029F                     u43_21:
  3312  029F  2A95               	goto	i1l1114
  3313  02A0                     u43_20:
  3314  02A0                     i1l142:
  3315  02A0  0008               	return
  3316  02A1                     __end_ofi1_i2c_wait:
  3317                           
  3318                           	psect	text23
  3319  01A1                     __ptext23:	
  3320 ;; *************** function _map *****************
  3321 ;; Defined at:
  3322 ;;		line 94 in file "PCA9685.c"
  3323 ;; Parameters:    Size  Location     Type
  3324 ;;  x               2    0[BANK0 ] unsigned int 
  3325 ;;  in_min          2    2[BANK0 ] unsigned int 
  3326 ;;  in_max          2    4[BANK0 ] unsigned int 
  3327 ;;  out_min         2    6[BANK0 ] unsigned int 
  3328 ;;  out_max         2    8[BANK0 ] unsigned int 
  3329 ;; Auto vars:     Size  Location     Type
  3330 ;;		None
  3331 ;; Return value:  Size  Location     Type
  3332 ;;                  2    0[BANK0 ] unsigned int 
  3333 ;; Registers used:
  3334 ;;		wreg, status,2, status,0, pclath, cstack
  3335 ;; Tracked objects:
  3336 ;;		On entry : 0/0
  3337 ;;		On exit  : 0/0
  3338 ;;		Unchanged: 0/0
  3339 ;; Data sizes:     COMMON   BANK0   BANK1   BANK2   BANK3   BANK4   BANK5   BANK6   BANK7   BANK8   BANK9  BANK10  BANK1
      +1  BANK12
  3340 ;;      Params:         0      10       0       0       0       0       0       0       0       0       0       0       
      +0       0
  3341 ;;      Locals:         0       0       0       0       0       0       0       0       0       0       0       0       
      +0       0
  3342 ;;      Temps:          0       0       0       0       0       0       0       0       0       0       0       0       
      +0       0
  3343 ;;      Totals:         0      10       0       0       0       0       0       0       0       0       0       0       
      +0       0
  3344 ;;Total ram usage:       10 bytes
  3345 ;; Hardware stack levels used:    1
  3346 ;; Hardware stack levels required when called:    1
  3347 ;; This function calls:
  3348 ;;		___wmul
  3349 ;;		i1___lwdiv
  3350 ;; This function is called by:
  3351 ;;		_servo_write
  3352 ;; This function uses a non-reentrant model
  3353 ;;
  3354                           
  3355                           
  3356                           ;psect for function _map
  3357  01A1                     _map:
  3358  01A1                     i1l1234:	
  3359                           ;incstack = 0
  3360                           ; Regs used in _map: [wreg+status,2+status,0+pclath+cstack]
  3361                           
  3362                           
  3363                           ;PCA9685.c: 95: return (x - in_min) * (out_max - out_min) / (in_max - in_min) + out_min;
  3364  01A1  0020               	movlb	0	; select bank0
  3365  01A2  0822               	movf	map@in_min,w
  3366  01A3  0224               	subwf	map@in_max,w
  3367  01A4  00F6               	movwf	i1___lwdiv@divisor
  3368  01A5  0823               	movf	map@in_min+1,w
  3369  01A6  3B25               	subwfb	map@in_max+1,w
  3370  01A7  00F7               	movwf	i1___lwdiv@divisor+1
  3371  01A8  0822               	movf	map@in_min,w
  3372  01A9  0220               	subwf	map@x,w
  3373  01AA  00F0               	movwf	___wmul@multiplier
  3374  01AB  0823               	movf	map@in_min+1,w
  3375  01AC  3B21               	subwfb	map@x+1,w
  3376  01AD  00F1               	movwf	___wmul@multiplier+1
  3377  01AE  0826               	movf	map@out_min,w
  3378  01AF  0228               	subwf	map@out_max,w
  3379  01B0  00F2               	movwf	___wmul@multiplicand
  3380  01B1  0827               	movf	map@out_min+1,w
  3381  01B2  3B29               	subwfb	map@out_max+1,w
  3382  01B3  00F3               	movwf	___wmul@multiplicand+1
  3383  01B4  3181  21E9  3181   	fcall	___wmul
  3384  01B7  0871               	movf	?___wmul+1,w
  3385  01B8  00F9               	movwf	i1___lwdiv@dividend+1
  3386  01B9  0870               	movf	?___wmul,w
  3387  01BA  00F8               	movwf	i1___lwdiv@dividend
  3388  01BB  3180  20DE  3181   	fcall	i1___lwdiv
  3389  01BE  0020               	movlb	0	; select bank0
  3390  01BF  0826               	movf	map@out_min,w
  3391  01C0  0776               	addwf	?i1___lwdiv,w
  3392  01C1  00A0               	movwf	?_map
  3393  01C2  0827               	movf	map@out_min+1,w
  3394  01C3  3D77               	addwfc	?i1___lwdiv+1,w
  3395  01C4  00A1               	movwf	?_map+1
  3396  01C5                     i1l205:
  3397  01C5  0008               	return
  3398  01C6                     __end_of_map:
  3399                           
  3400                           	psect	text24
  3401  00DE                     __ptext24:	
  3402 ;; *************** function i1___lwdiv *****************
  3403 ;; Defined at:
  3404 ;;		line 5 in file "C:\Program Files\Microchip\xc8\v2.30\pic\sources\c90\common\lwdiv.c"
  3405 ;; Parameters:    Size  Location     Type
  3406 ;;  divisor         2    6[COMMON] unsigned int 
  3407 ;;  dividend        2    8[COMMON] unsigned int 
  3408 ;; Auto vars:     Size  Location     Type
  3409 ;;  quotient        2   11[COMMON] unsigned int 
  3410 ;;  counter         1   13[COMMON] unsigned char 
  3411 ;; Return value:  Size  Location     Type
  3412 ;;                  2    6[COMMON] unsigned int 
  3413 ;; Registers used:
  3414 ;;		wreg, status,2, status,0
  3415 ;; Tracked objects:
  3416 ;;		On entry : 0/0
  3417 ;;		On exit  : 0/0
  3418 ;;		Unchanged: 0/0
  3419 ;; Data sizes:     COMMON   BANK0   BANK1   BANK2   BANK3   BANK4   BANK5   BANK6   BANK7   BANK8   BANK9  BANK10  BANK1
      +1  BANK12
  3420 ;;      Params:         4       0       0       0       0       0       0       0       0       0       0       0       
      +0       0
  3421 ;;      Locals:         3       0       0       0       0       0       0       0       0       0       0       0       
      +0       0
  3422 ;;      Temps:          1       0       0       0       0       0       0       0       0       0       0       0       
      +0       0
  3423 ;;      Totals:         8       0       0       0       0       0       0       0       0       0       0       0       
      +0       0
  3424 ;;Total ram usage:        8 bytes
  3425 ;; Hardware stack levels used:    1
  3426 ;; This function calls:
  3427 ;;		Nothing
  3428 ;; This function is called by:
  3429 ;;		_map
  3430 ;; This function uses a non-reentrant model
  3431 ;;
  3432                           
  3433                           
  3434                           ;psect for function i1___lwdiv
  3435  00DE                     i1___lwdiv:
  3436  00DE                     i1l1170:	
  3437                           ;incstack = 0
  3438                           ; Regs used in i1___lwdiv: [wreg+status,2+status,0]
  3439                           
  3440  00DE  01FB               	clrf	i1___lwdiv@quotient
  3441  00DF  01FC               	clrf	i1___lwdiv@quotient+1
  3442  00E0                     i1l1172:
  3443  00E0  0876               	movf	i1___lwdiv@divisor,w
  3444  00E1  0477               	iorwf	i1___lwdiv@divisor+1,w
  3445  00E2  1903               	btfsc	3,2
  3446  00E3  28E5               	goto	u58_21
  3447  00E4  28E6               	goto	u58_20
  3448  00E5                     u58_21:
  3449  00E5  2915               	goto	i1l1192
  3450  00E6                     u58_20:
  3451  00E6                     i1l1174:
  3452  00E6  01FD               	clrf	i1___lwdiv@counter
  3453  00E7  0AFD               	incf	i1___lwdiv@counter,f
  3454  00E8  28F2               	goto	i1l1180
  3455  00E9                     i1l1176:
  3456  00E9  3001               	movlw	1
  3457  00EA                     u59_25:
  3458  00EA  35F6               	lslf	i1___lwdiv@divisor,f
  3459  00EB  0DF7               	rlf	i1___lwdiv@divisor+1,f
  3460  00EC  0B89               	decfsz	9,f
  3461  00ED  28EA               	goto	u59_25
  3462  00EE                     i1l1178:
  3463  00EE  3001               	movlw	1
  3464  00EF  00FA               	movwf	??i1___lwdiv
  3465  00F0  087A               	movf	??i1___lwdiv,w
  3466  00F1  07FD               	addwf	i1___lwdiv@counter,f
  3467  00F2                     i1l1180:
  3468  00F2  1FF7               	btfss	i1___lwdiv@divisor+1,7
  3469  00F3  28F5               	goto	u60_21
  3470  00F4  28F6               	goto	u60_20
  3471  00F5                     u60_21:
  3472  00F5  28E9               	goto	i1l1176
  3473  00F6                     u60_20:
  3474  00F6                     i1l1182:
  3475  00F6  3001               	movlw	1
  3476  00F7                     u61_25:
  3477  00F7  35FB               	lslf	i1___lwdiv@quotient,f
  3478  00F8  0DFC               	rlf	i1___lwdiv@quotient+1,f
  3479  00F9  0B89               	decfsz	9,f
  3480  00FA  28F7               	goto	u61_25
  3481  00FB  0877               	movf	i1___lwdiv@divisor+1,w
  3482  00FC  0279               	subwf	i1___lwdiv@dividend+1,w
  3483  00FD  1D03               	skipz
  3484  00FE  2901               	goto	u62_25
  3485  00FF  0876               	movf	i1___lwdiv@divisor,w
  3486  0100  0278               	subwf	i1___lwdiv@dividend,w
  3487  0101                     u62_25:
  3488  0101  1C03               	skipc
  3489  0102  2904               	goto	u62_21
  3490  0103  2905               	goto	u62_20
  3491  0104                     u62_21:
  3492  0104  290A               	goto	i1l1188
  3493  0105                     u62_20:
  3494  0105                     i1l1184:
  3495  0105  0876               	movf	i1___lwdiv@divisor,w
  3496  0106  02F8               	subwf	i1___lwdiv@dividend,f
  3497  0107  0877               	movf	i1___lwdiv@divisor+1,w
  3498  0108  3BF9               	subwfb	i1___lwdiv@dividend+1,f
  3499  0109                     i1l1186:
  3500  0109  147B               	bsf	i1___lwdiv@quotient,0
  3501  010A                     i1l1188:
  3502  010A  3001               	movlw	1
  3503  010B                     u63_25:
  3504  010B  36F7               	lsrf	i1___lwdiv@divisor+1,f
  3505  010C  0CF6               	rrf	i1___lwdiv@divisor,f
  3506  010D  0B89               	decfsz	9,f
  3507  010E  290B               	goto	u63_25
  3508  010F                     i1l1190:
  3509  010F  3001               	movlw	1
  3510  0110  02FD               	subwf	i1___lwdiv@counter,f
  3511  0111  1D03               	btfss	3,2
  3512  0112  2914               	goto	u64_21
  3513  0113  2915               	goto	u64_20
  3514  0114                     u64_21:
  3515  0114  28F6               	goto	i1l1182
  3516  0115                     u64_20:
  3517  0115                     i1l1192:
  3518  0115  087C               	movf	i1___lwdiv@quotient+1,w
  3519  0116  00F7               	movwf	?i1___lwdiv+1
  3520  0117  087B               	movf	i1___lwdiv@quotient,w
  3521  0118  00F6               	movwf	?i1___lwdiv
  3522  0119                     i1l630:
  3523  0119  0008               	return
  3524  011A                     __end_ofi1___lwdiv:
  3525                           
  3526                           	psect	text25
  3527  01E9                     __ptext25:	
  3528 ;; *************** function ___wmul *****************
  3529 ;; Defined at:
  3530 ;;		line 15 in file "C:\Program Files\Microchip\xc8\v2.30\pic\sources\c90\common\Umul16.c"
  3531 ;; Parameters:    Size  Location     Type
  3532 ;;  multiplier      2    0[COMMON] unsigned int 
  3533 ;;  multiplicand    2    2[COMMON] unsigned int 
  3534 ;; Auto vars:     Size  Location     Type
  3535 ;;  product         2    4[COMMON] unsigned int 
  3536 ;; Return value:  Size  Location     Type
  3537 ;;                  2    0[COMMON] unsigned int 
  3538 ;; Registers used:
  3539 ;;		wreg, status,2, status,0
  3540 ;; Tracked objects:
  3541 ;;		On entry : 0/0
  3542 ;;		On exit  : 0/0
  3543 ;;		Unchanged: 0/0
  3544 ;; Data sizes:     COMMON   BANK0   BANK1   BANK2   BANK3   BANK4   BANK5   BANK6   BANK7   BANK8   BANK9  BANK10  BANK1
      +1  BANK12
  3545 ;;      Params:         4       0       0       0       0       0       0       0       0       0       0       0       
      +0       0
  3546 ;;      Locals:         2       0       0       0       0       0       0       0       0       0       0       0       
      +0       0
  3547 ;;      Temps:          0       0       0       0       0       0       0       0       0       0       0       0       
      +0       0
  3548 ;;      Totals:         6       0       0       0       0       0       0       0       0       0       0       0       
      +0       0
  3549 ;;Total ram usage:        6 bytes
  3550 ;; Hardware stack levels used:    1
  3551 ;; This function calls:
  3552 ;;		Nothing
  3553 ;; This function is called by:
  3554 ;;		_map
  3555 ;; This function uses a non-reentrant model
  3556 ;;
  3557                           
  3558                           
  3559                           ;psect for function ___wmul
  3560  01E9                     ___wmul:
  3561  01E9                     i1l1146:	
  3562                           ;incstack = 0
  3563                           ; Regs used in ___wmul: [wreg+status,2+status,0]
  3564                           
  3565  01E9  01F4               	clrf	___wmul@product
  3566  01EA  01F5               	clrf	___wmul@product+1
  3567  01EB                     i1l1148:
  3568  01EB  1C70               	btfss	___wmul@multiplier,0
  3569  01EC  29EE               	goto	u50_21
  3570  01ED  29EF               	goto	u50_20
  3571  01EE                     u50_21:
  3572  01EE  29F3               	goto	i1l358
  3573  01EF                     u50_20:
  3574  01EF                     i1l1150:
  3575  01EF  0872               	movf	___wmul@multiplicand,w
  3576  01F0  07F4               	addwf	___wmul@product,f
  3577  01F1  0873               	movf	___wmul@multiplicand+1,w
  3578  01F2  3DF5               	addwfc	___wmul@product+1,f
  3579  01F3                     i1l358:
  3580  01F3  3001               	movlw	1
  3581  01F4                     u51_25:
  3582  01F4  35F2               	lslf	___wmul@multiplicand,f
  3583  01F5  0DF3               	rlf	___wmul@multiplicand+1,f
  3584  01F6  0B89               	decfsz	9,f
  3585  01F7  29F4               	goto	u51_25
  3586  01F8                     i1l1152:
  3587  01F8  3001               	movlw	1
  3588  01F9                     u52_25:
  3589  01F9  36F1               	lsrf	___wmul@multiplier+1,f
  3590  01FA  0CF0               	rrf	___wmul@multiplier,f
  3591  01FB  0B89               	decfsz	9,f
  3592  01FC  29F9               	goto	u52_25
  3593  01FD                     i1l1154:
  3594  01FD  0870               	movf	___wmul@multiplier,w
  3595  01FE  0471               	iorwf	___wmul@multiplier+1,w
  3596  01FF  1D03               	btfss	3,2
  3597  0200  2A02               	goto	u53_21
  3598  0201  2A03               	goto	u53_20
  3599  0202                     u53_21:
  3600  0202  29EB               	goto	i1l1148
  3601  0203                     u53_20:
  3602  0203                     i1l1156:
  3603  0203  0875               	movf	___wmul@product+1,w
  3604  0204  00F1               	movwf	?___wmul+1
  3605  0205  0874               	movf	___wmul@product,w
  3606  0206  00F0               	movwf	?___wmul
  3607  0207                     i1l360:
  3608  0207  0008               	return
  3609  0208                     __end_of___wmul:
  3610                           
  3611                           	psect	text26
  3612  02C9                     __ptext26:	
  3613 ;; *************** function _send *****************
  3614 ;; Defined at:
  3615 ;;		line 65 in file "main.c"
  3616 ;; Parameters:    Size  Location     Type
  3617 ;;  data            1    wreg     unsigned char 
  3618 ;; Auto vars:     Size  Location     Type
  3619 ;;  data            1    0[COMMON] unsigned char 
  3620 ;; Return value:  Size  Location     Type
  3621 ;;                  1    wreg      void 
  3622 ;; Registers used:
  3623 ;;		wreg
  3624 ;; Tracked objects:
  3625 ;;		On entry : 0/0
  3626 ;;		On exit  : 0/0
  3627 ;;		Unchanged: 0/0
  3628 ;; Data sizes:     COMMON   BANK0   BANK1   BANK2   BANK3   BANK4   BANK5   BANK6   BANK7   BANK8   BANK9  BANK10  BANK1
      +1  BANK12
  3629 ;;      Params:         0       0       0       0       0       0       0       0       0       0       0       0       
      +0       0
  3630 ;;      Locals:         1       0       0       0       0       0       0       0       0       0       0       0       
      +0       0
  3631 ;;      Temps:          0       0       0       0       0       0       0       0       0       0       0       0       
      +0       0
  3632 ;;      Totals:         1       0       0       0       0       0       0       0       0       0       0       0       
      +0       0
  3633 ;;Total ram usage:        1 bytes
  3634 ;; Hardware stack levels used:    1
  3635 ;; This function calls:
  3636 ;;		Nothing
  3637 ;; This function is called by:
  3638 ;;		_isr
  3639 ;; This function uses a non-reentrant model
  3640 ;;
  3641                           
  3642                           
  3643                           ;psect for function _send
  3644  02C9                     _send:
  3645                           
  3646                           ;incstack = 0
  3647                           ; Regs used in _send: [wreg]
  3648                           ;send@data stored from wreg
  3649  02C9  00F0               	movwf	send@data
  3650  02CA                     i1l1292:
  3651  02CA                     i1l110:	
  3652                           ;main.c: 66: while(!TXSTAbits.TRMT);
  3653                           
  3654  02CA  0023               	movlb	3	; select bank3
  3655  02CB  1C9E               	btfss	30,1	;volatile
  3656  02CC  2ACE               	goto	u73_21
  3657  02CD  2ACF               	goto	u73_20
  3658  02CE                     u73_21:
  3659  02CE  2ACA               	goto	i1l110
  3660  02CF                     u73_20:
  3661  02CF                     i1l1294:
  3662                           
  3663                           ;main.c: 67: TXREG = data;
  3664  02CF  0870               	movf	send@data,w
  3665  02D0  009A               	movwf	26	;volatile
  3666  02D1                     i1l113:
  3667  02D1  0008               	return
  3668  02D2                     __end_of_send:
  3669  007E                     btemp	set	126	;btemp
  3670  007E                     int$flags	set	126
  3671  007E                     wtemp0	set	126
  3672                           
  3673                           	psect	config
  3674                           
  3675                           ;Config register CONFIG1 @ 0x8007
  3676                           ;	Oscillator Selection
  3677                           ;	FOSC = INTOSC, INTOSC oscillator: I/O function on CLKIN pin
  3678                           ;	Watchdog Timer Enable
  3679                           ;	WDTE = OFF, WDT disabled
  3680                           ;	Power-up Timer Enable
  3681                           ;	PWRTE = OFF, PWRT disabled
  3682                           ;	MCLR Pin Function Select
  3683                           ;	MCLRE = ON, MCLR/VPP pin function is MCLR
  3684                           ;	Flash Program Memory Code Protection
  3685                           ;	CP = OFF, Program memory code protection is disabled
  3686                           ;	Data Memory Code Protection
  3687                           ;	CPD = OFF, Data memory code protection is disabled
  3688                           ;	Brown-out Reset Enable
  3689                           ;	BOREN = ON, Brown-out Reset enabled
  3690                           ;	Clock Out Enable
  3691                           ;	CLKOUTEN = OFF, CLKOUT function is disabled. I/O or oscillator function on the CLKOUT 
      +                          pin
  3692                           ;	Internal/External Switchover
  3693                           ;	IESO = ON, Internal/External Switchover mode is enabled
  3694                           ;	Fail-Safe Clock Monitor Enable
  3695                           ;	FCMEN = ON, Fail-Safe Clock Monitor is enabled
  3696  8007                     	org	32775
  3697  8007  3FE4               	dw	16356
  3698                           
  3699                           ;Config register CONFIG2 @ 0x8008
  3700                           ;	Flash Memory Self-Write Protection
  3701                           ;	WRT = OFF, Write protection off
  3702                           ;	Voltage Regulator Capacitor Enable
  3703                           ;	VCAPEN = OFF, All VCAP pin functionality is disabled
  3704                           ;	PLL Enable
  3705                           ;	PLLEN = OFF, 4x PLL disabled
  3706                           ;	Stack Overflow/Underflow Reset Enable
  3707                           ;	STVREN = ON, Stack Overflow or Underflow will cause a Reset
  3708                           ;	Brown-out Reset Voltage Selection
  3709                           ;	BORV = LO, Brown-out Reset Voltage (Vbor), low trip point selected.
  3710                           ;	Low-Voltage Programming Enable
  3711                           ;	LVP = OFF, High-voltage on MCLR/VPP must be used for programming
  3712  8008                     	org	32776
  3713  8008  1EFF               	dw	7935

Data Sizes:
    Strings     0
    Constant    0
    Data        0
    BSS         2
    Persistent  32
    Stack       0

Auto Spaces:
    Space          Size  Autos    Used
    COMMON           14     14      14
    BANK0            80     34      36
    BANK1            80      0       0
    BANK2            80      0       0
    BANK3            80      0       0
    BANK4            80      0       0
    BANK5            80      0       0
    BANK6            80      0       0
    BANK7            80      0       0
    BANK8            80      0       0
    BANK9            80      0       0
    BANK10           80      0       0
    BANK11           80      0       0
    BANK12           48      0       0

Pointer List with Targets:

    None.

Critical Paths under _main in COMMON

    None.

Critical Paths under _isr in COMMON

    _set_pwm->i1_i2c_write
    _map->i1___lwdiv
    i1___lwdiv->___wmul

Critical Paths under _main in BANK0

    _main->_set_pwm_freq
    _set_pwm_freq->___lwdiv
    __write->_i2c_write
    __read->_i2c_read
    _init->_i2c_write

Critical Paths under _isr in BANK0

    _isr->_servo_write
    _servo_write->_map

Critical Paths under _main in BANK1

    None.

Critical Paths under _isr in BANK1

    None.

Critical Paths under _main in BANK2

    None.

Critical Paths under _isr in BANK2

    None.

Critical Paths under _main in BANK3

    None.

Critical Paths under _isr in BANK3

    None.

Critical Paths under _main in BANK4

    None.

Critical Paths under _isr in BANK4

    None.

Critical Paths under _main in BANK5

    None.

Critical Paths under _isr in BANK5

    None.

Critical Paths under _main in BANK6

    None.

Critical Paths under _isr in BANK6

    None.

Critical Paths under _main in BANK7

    None.

Critical Paths under _isr in BANK7

    None.

Critical Paths under _main in BANK8

    None.

Critical Paths under _isr in BANK8

    None.

Critical Paths under _main in BANK9

    None.

Critical Paths under _isr in BANK9

    None.

Critical Paths under _main in BANK10

    None.

Critical Paths under _isr in BANK10

    None.

Critical Paths under _main in BANK11

    None.

Critical Paths under _isr in BANK11

    None.

Critical Paths under _main in BANK12

    None.

Critical Paths under _isr in BANK12

    None.

Call Graph Tables:

 ---------------------------------------------------------------------------------
 (Depth) Function   	        Calls       Base Space   Used Autos Params    Refs
 ---------------------------------------------------------------------------------
 (0) _main                                                 2     2      0    1176
                                             32 BANK0      2     2      0
                  _SYSTEM_Initialize
                               _init
                       _set_pwm_freq
 ---------------------------------------------------------------------------------
 (1) _set_pwm_freq                                         8     6      2    1154
                                             24 BANK0      8     6      2
                            ___lwdiv
                              __read
                             __write
 ---------------------------------------------------------------------------------
 (2) __write                                               2     1      1     370
                                             17 BANK0      2     1      1
                          _i2c_start
                           _i2c_stop
                          _i2c_write
 ---------------------------------------------------------------------------------
 (2) __read                                                3     3      0     112
                                             19 BANK0      3     3      0
                           _i2c_read
                 _i2c_repeated_start
                          _i2c_start
                           _i2c_stop
                          _i2c_write
 ---------------------------------------------------------------------------------
 (3) _i2c_repeated_start                                   0     0      0       0
                           _i2c_wait
 ---------------------------------------------------------------------------------
 (3) _i2c_read                                             3     3      0      45
                                             16 BANK0      3     3      0
                           _i2c_wait
 ---------------------------------------------------------------------------------
 (2) ___lwdiv                                              8     4      4     414
                                             16 BANK0      8     4      4
 ---------------------------------------------------------------------------------
 (1) _init                                                 0     0      0      22
                          _i2c_start
                           _i2c_stop
                          _i2c_write
 ---------------------------------------------------------------------------------
 (3) _i2c_write                                            1     1      0      22
                                             16 BANK0      1     1      0
                           _i2c_wait
 ---------------------------------------------------------------------------------
 (3) _i2c_stop                                             0     0      0       0
 ---------------------------------------------------------------------------------
 (3) _i2c_start                                            0     0      0       0
                           _i2c_wait
 ---------------------------------------------------------------------------------
 (4) _i2c_wait                                             0     0      0       0
 ---------------------------------------------------------------------------------
 (1) _SYSTEM_Initialize                                    0     0      0       0
              _OSCILLATOR_Initialize
             _PIN_MANAGER_Initialize
                     _WDT_Initialize
 ---------------------------------------------------------------------------------
 (2) _WDT_Initialize                                       0     0      0       0
 ---------------------------------------------------------------------------------
 (2) _PIN_MANAGER_Initialize                               0     0      0       0
 ---------------------------------------------------------------------------------
 (2) _OSCILLATOR_Initialize                                0     0      0       0
 ---------------------------------------------------------------------------------
 Estimated maximum stack depth 4
 ---------------------------------------------------------------------------------
 (Depth) Function   	        Calls       Base Space   Used Autos Params    Refs
 ---------------------------------------------------------------------------------
 (5) _isr                                                  3     3      0    1530
                                             13 BANK0      3     3      0
                               _send
                        _servo_write
 ---------------------------------------------------------------------------------
 (6) _servo_write                                          3     1      2    1419
                                             10 BANK0      3     1      2
                                _map
                            _set_pwm
 ---------------------------------------------------------------------------------
 (7) _set_pwm                                              6     2      4     284
                                              1 COMMON     6     2      4
                        i1_i2c_start
                         i1_i2c_stop
                        i1_i2c_write
 ---------------------------------------------------------------------------------
 (8) i1_i2c_write                                          1     1      0      22
                                              0 COMMON     1     1      0
                         i1_i2c_wait
 ---------------------------------------------------------------------------------
 (8) i1_i2c_stop                                           0     0      0       0
 ---------------------------------------------------------------------------------
 (8) i1_i2c_start                                          0     0      0       0
                         i1_i2c_wait
 ---------------------------------------------------------------------------------
 (9) i1_i2c_wait                                           0     0      0       0
 ---------------------------------------------------------------------------------
 (7) _map                                                 10     0     10     992
                                              0 BANK0     10     0     10
                             ___wmul
                          i1___lwdiv
 ---------------------------------------------------------------------------------
 (8) i1___lwdiv                                            8     4      4     214
                                              6 COMMON     8     4      4
                             ___wmul (ARG)
 ---------------------------------------------------------------------------------
 (8) ___wmul                                               6     2      4     244
                                              0 COMMON     6     2      4
 ---------------------------------------------------------------------------------
 (6) _send                                                 1     1      0      22
                                              0 COMMON     1     1      0
 ---------------------------------------------------------------------------------
 Estimated maximum stack depth 9
 ---------------------------------------------------------------------------------

 Call Graph Graphs:

 _main (ROOT)
   _SYSTEM_Initialize
     _OSCILLATOR_Initialize
     _PIN_MANAGER_Initialize
     _WDT_Initialize
   _init
     _i2c_start
       _i2c_wait
     _i2c_stop
     _i2c_write
       _i2c_wait
   _set_pwm_freq
     ___lwdiv
     __read
       _i2c_read
         _i2c_wait
       _i2c_repeated_start
         _i2c_wait
       _i2c_start
         _i2c_wait
       _i2c_stop
       _i2c_write
         _i2c_wait
     __write
       _i2c_start
         _i2c_wait
       _i2c_stop
       _i2c_write
         _i2c_wait

 _isr (ROOT)
   _send
   _servo_write
     _map
       ___wmul
       i1___lwdiv
         ___wmul (ARG)
     _set_pwm
       i1_i2c_start
         i1_i2c_wait
       i1_i2c_stop
       i1_i2c_write
         i1_i2c_wait

 Address spaces:
Name               Size   Autos  Total    Cost      Usage
BIGRAM             3F0      0       0       0        0.0%
EEDATA             100      0       0       0        0.0%
NULL                 0      0       0       0        0.0%
CODE                 0      0       0       0        0.0%
BITCOMMON            E      0       0       1        0.0%
BITSFR0              0      0       0       1        0.0%
SFR0                 0      0       0       1        0.0%
COMMON               E      E       E       2      100.0%
BITSFR1              0      0       0       2        0.0%
SFR1                 0      0       0       2        0.0%
BITSFR2              0      0       0       3        0.0%
SFR2                 0      0       0       3        0.0%
STACK                0      0       0       3        0.0%
BITBANK0            50      0       0       4        0.0%
BITSFR3              0      0       0       4        0.0%
SFR3                 0      0       0       4        0.0%
BANK0               50     22      24       5       45.0%
BITSFR4              0      0       0       5        0.0%
SFR4                 0      0       0       5        0.0%
BITBANK1            50      0       0       6        0.0%
BITSFR5              0      0       0       6        0.0%
SFR5                 0      0       0       6        0.0%
BANK1               50      0       0       7        0.0%
BITSFR6              0      0       0       7        0.0%
SFR6                 0      0       0       7        0.0%
BITBANK2            50      0       0       8        0.0%
BITSFR7              0      0       0       8        0.0%
SFR7                 0      0       0       8        0.0%
BANK2               50      0       0       9        0.0%
BITSFR8              0      0       0       9        0.0%
SFR8                 0      0       0       9        0.0%
BITBANK3            50      0       0      10        0.0%
BITSFR9              0      0       0      10        0.0%
SFR9                 0      0       0      10        0.0%
BANK3               50      0       0      11        0.0%
BITSFR10             0      0       0      11        0.0%
SFR10                0      0       0      11        0.0%
BITBANK4            50      0       0      12        0.0%
BITSFR11             0      0       0      12        0.0%
SFR11                0      0       0      12        0.0%
BANK4               50      0       0      13        0.0%
BITSFR12             0      0       0      13        0.0%
SFR12                0      0       0      13        0.0%
BITBANK5            50      0       0      14        0.0%
BITSFR13             0      0       0      14        0.0%
SFR13                0      0       0      14        0.0%
BANK5               50      0       0      15        0.0%
BITSFR14             0      0       0      15        0.0%
SFR14                0      0       0      15        0.0%
BITBANK6            50      0       0      16        0.0%
BITSFR15             0      0       0      16        0.0%
SFR15                0      0       0      16        0.0%
BANK6               50      0       0      17        0.0%
BITSFR16             0      0       0      17        0.0%
SFR16                0      0       0      17        0.0%
BITBANK7            50      0       0      18        0.0%
BITSFR17             0      0       0      18        0.0%
SFR17                0      0       0      18        0.0%
BANK7               50      0       0      19        0.0%
BITSFR18             0      0       0      19        0.0%
SFR18                0      0       0      19        0.0%
BITSFR19             0      0       0      20        0.0%
SFR19                0      0       0      20        0.0%
ABS                  0      0      32      20        0.0%
BITBANK8            50      0       0      21        0.0%
BITSFR20             0      0       0      21        0.0%
SFR20                0      0       0      21        0.0%
BANK8               50      0       0      22        0.0%
BITSFR21             0      0       0      22        0.0%
SFR21                0      0       0      22        0.0%
BITBANK9            50      0       0      23        0.0%
BITSFR22             0      0       0      23        0.0%
SFR22                0      0       0      23        0.0%
BANK9               50      0       0      24        0.0%
BITSFR23             0      0       0      24        0.0%
SFR23                0      0       0      24        0.0%
BITBANK10           50      0       0      25        0.0%
BITSFR24             0      0       0      25        0.0%
SFR24                0      0       0      25        0.0%
BANK10              50      0       0      26        0.0%
BITSFR25             0      0       0      26        0.0%
SFR25                0      0       0      26        0.0%
BITBANK11           50      0       0      27        0.0%
BITSFR26             0      0       0      27        0.0%
SFR26                0      0       0      27        0.0%
BANK11              50      0       0      28        0.0%
BITSFR27             0      0       0      28        0.0%
SFR27                0      0       0      28        0.0%
BITBANK12           30      0       0      29        0.0%
BITSFR28             0      0       0      29        0.0%
SFR28                0      0       0      29        0.0%
BANK12              30      0       0      30        0.0%
BITSFR29             0      0       0      30        0.0%
SFR29                0      0       0      30        0.0%
BITSFR30             0      0       0      31        0.0%
SFR30                0      0       0      31        0.0%
DATA                 0      0      32      31        0.0%
BITSFR31             0      0       0      32        0.0%
SFR31                0      0       0      32        0.0%


Microchip Technology PIC Macro Assembler V2.30 build 20200825195618 
Symbol Table                                                                                   Sat Jul 10 16:40:47 2021

        set_pwm_freq@prescaleval 003D                      _SSPSTATbits 0214                               l31 023D  
                             l51 02BE                               l54 02DF                               l57 02EA  
            ___wmul@multiplicand 0072                              l104 014D                              l105 014D  
                            l202 00A0                              l142 0294                              l151 02D4  
                            l160 02AA                              l145 02B0                              l154 02D8  
                            l163 026D                              l148 02B4                              l172 0211  
                            l157 02A6                              l166 0271                              l174 0215  
                            l190 0254                              l175 0222                              l169 0278  
                            l193 01E8                              l196 0267                              l630 00DD  
                            _GIE 005F                              u400 0290                              u401 028F  
                            u410 0294                              u411 0293                              u440 02B4  
                            u441 02B3                              u450 02D8                              u451 02D7  
                            u700 00C9                              u460 02AA                              u701 00C8  
                            u461 02A9                              u470 0271                              u471 0270  
                            u480 0275                              u720 00D9                              u481 0274  
                            u721 00D8                              u705 00C5                              u490 0215  
                            u715 00CF                              u491 0214                              u660 00AA  
                            u661 00A9                              u807 0091                              u680 00BA  
                            u681 00B9                              u675 00AE                              u695 00BB  
                            u797 0138                              _map 01A1                              _isr 0004  
                            wreg 0009                             l1110 0290                             l1200 022B  
                           l1120 02AE                             l1210 0239                             l1202 022D  
                           l1106 0289                             l1122 02D2                             l1130 0275  
                           l1212 02D9                             l1204 022F                             l1108 0289  
                           l1140 021D                             l1132 020A                             l1124 02A1  
                           l1220 0240                             l1300 011D                             l1214 02DC  
                           l1206 0231                             l1118 02AB                             l1142 0220  
                           l1134 0210                             l1126 02A4                             l1222 0251  
                           l1310 0128                             l1302 011F                             l1216 02DD  
                           l1208 0234                             l1128 026A                             l1240 00A4  
                           l1136 0216                             l1224 01C8                             l1320 0131  
                           l1312 012A                             l1304 0120                             l1218 02E7  
                           l1250 00BA                             l1242 00AA                             l1138 021B  
                           l1226 01E3                             l1322 0132                             l1314 012C  
                           l1306 0123                             l1252 00C9                             l1244 00AD  
                           l1260 00D9                             l1324 014A                             l1316 012E  
                           l1308 0126                             l1254 00CD                             l1246 00B2  
                           l1238 00A1                             l1270 0048                             l1318 0130  
                           l1264 02B5                             l1256 00CE                             l1248 00B6  
                           l1280 006D                             l1272 004D                             l1266 0255  
                           l1258 00D3                             l1290 0096                             l1282 0073  
                           l1274 005D                             l1196 0223                             l1268 0264  
                           l1284 007B                             l1276 0061                             l1198 0228  
                           l1286 0084                             l1278 0065                             l1288 008D  
                           l1298 011A                             ?_map 0020                             ?_isr 0070  
                           _LATA 010C                             _LATB 010D                             _LATC 010E  
                           _LATE 0110                             _PEIE 005E                             _WPUB 020D  
                           _WPUE 0210                             _main 011A                             _init 0255  
                           _send 02C9                             map@x 0020                             btemp 007E  
                           start 003F                            ??_map 007E                            ??_isr 002D  
 __size_of_OSCILLATOR_Initialize 0007    __end_of_OSCILLATOR_Initialize 02E0                            ?_main 0070  
                          ?_init 0070                            ?_send 0070                      i2c_read@ack 0031  
                __end_of___lwdiv 00DE                            i1l110 02CA                            i1l113 02D1  
                          i1l124 003D                            i1l205 01C5                            i1l142 02A0  
                          i1l151 02E2                            i1l208 0178                            i1l145 02C4  
                          i1l154 02E6                            i1l163 027D                            i1l148 02C8  
                          i1l166 0281                            i1l360 0207                            i1l169 0288  
                          i1l358 01F3                            i1l630 0119                            i1l199 01A0  
                          _RCREG 0199                            _RCSTA 019D                            u50_20 01EF  
                          u42_20 029C                            u50_21 01EE                            u42_21 029B  
                          _SPBRG 019B                            u43_20 02A0                            u43_21 029F  
                          u51_25 01F4                            u60_20 00F6                            u60_21 00F5  
                          u52_25 01F9                            u53_20 0203                            u53_21 0202  
                          u61_25 00F7                            u62_20 0105                            u54_20 02C8  
                          u62_21 0104                            u54_21 02C7                            u62_25 0101  
                          u55_20 02E6                            u55_21 02E5                            u63_25 010B  
                          u64_20 0115                            u56_20 0281                    servo_write@ch 002C  
                          u64_21 0114                            u56_21 0280                            u73_20 02CF  
                          u57_20 0285                            u73_21 02CE                            u57_21 0284  
                          _TRISA 008C                            _TRISB 008D                            u65_25 0184  
                          _TRISC 008E                            _TRISE 0090                            u58_20 00E6  
                          u74_20 000B                            u58_21 00E5                            u74_21 000A  
                          u75_20 0011                            u75_21 0010                            u59_25 00EA  
                          u76_20 0015                            u76_21 0014                            u77_20 0028  
                          u77_21 0027                            u78_20 002E                            u78_21 002D  
                          _TXREG 019A                            _TXSTA 019E                            __read 01C6  
                 _WDT_Initialize 02E7                      ?i1_i2c_wait 0070                      ?i1_i2c_stop 0070  
                __end_of_set_pwm 01A1                            status 0003                            wtemp0 007E  
             __size_ofi1___lwdiv 003C                  __initialization 0041                     __end_of_main 0150  
                   __end_of_init 0268                     __end_of_send 02D2                 __end_of_i2c_read 0223  
               __end_of_i2c_wait 0295                 __end_of_i2c_stop 02D9                           ??_main 0040  
                         ??_init 0031                           ??_send 0070           __end_of_WDT_Initialize 02EB  
                         ?__read 0070                           _APFCON 011D                           _ANSELA 018C  
                         _ANSELB 018D                           _BORCON 0116                     i2c_read@data 0032  
                         i1l1112 0295                           i1l1114 0295                           i1l1116 029C  
                         i1l1150 01EF                           i1l1230 017A                           i1l1152 01F8  
                         i1l1160 02BF                           i1l1232 019D                           i1l1154 01FD  
                         i1l1146 01E9                           i1l1170 00DE                           i1l1234 01A1  
                         i1l1162 02C2                           i1l1330 0011                           i1l1156 0203  
                         i1l1148 01EB                           i1l1180 00F2                           i1l1172 00E0  
                         i1l1164 02E0                           i1l1340 0022                           i1l1332 0015  
                         i1l1190 010F                           i1l1182 00F6                           i1l1174 00E6  
                         i1l1166 027A                           i1l1342 0028                           i1l1334 0016  
                         i1l1326 0006                           i1l1184 0105                           i1l1176 00E9  
                         i1l1192 0115                           i1l1168 0285                           i1l1344 002E  
                         i1l1336 0019                           i1l1328 000B                           i1l1186 0109  
                         i1l1178 00EE                           i1l1346 0035                           i1l1338 001E  
                         i1l1292 02CA                           i1l1188 010A                           i1l1294 02CF  
                         i1l1296 0152                           _OSCCON 0099                           _WDTCON 0097  
                         _SSPBUF 0211                   servo_write@ang 002A               __size_of_i2c_start 000A  
             __size_of_i2c_write 0011                           ___wmul 01E9                        ??___lwdiv 0034  
                         __write 023E              __size_ofi1_i2c_wait 000C              __size_ofi1_i2c_stop 0007  
                   ?i1_i2c_start 0070                     ?i1_i2c_write 0070                __end_ofi1___lwdiv 011A  
             _i2c_repeated_start 02A1                  ?_WDT_Initialize 0070                        ??_set_pwm 0075  
                   ?_servo_write 002A              ?_i2c_repeated_start 0070                _SYSTEM_Initialize 02B5  
        __end_of__initialization 0044               ?_SYSTEM_Initialize 0070                   __pcstackCOMMON 0070  
            ??_SYSTEM_Initialize 0030                    __end_of__read 01E9             ??_i2c_repeated_start 0030  
              __end_of_i2c_start 02B5                __end_of_i2c_write 0279                   _OPTION_REGbits 0095  
                        ??__read 0033                       __read@addr 0034        __end_of_SYSTEM_Initialize 02BF  
                     __read@data 0035                       __pbssBANK0 0042                        ?_i2c_read 0070  
                      ?_i2c_wait 0070                        ?_i2c_stop 0070                       __pmaintext 011A  
                        ?___wmul 0070                       __pintentry 0004                          ?__write 0031  
                        _BAUDCON 019F                          _OSCTUNE 0098                          _SSPCON2 0216  
                   ??i1_i2c_wait 0070                     ??i1_i2c_stop 0070                          _SSPSTAT 0214  
                     ??_i2c_read 0030                       ??_i2c_wait 0030                       ??_i2c_stop 0030  
                        _ch1_ang 0042                  __size_of___wmul 001F                          ___lwdiv 00A1  
                __size_of__write 0017               __end_ofi1_i2c_wait 02A1               __end_ofi1_i2c_stop 02E7  
                        __ptext1 0048                          __ptext2 023E                          __ptext3 01C6  
                        __ptext4 02A1                          __ptext5 0208                          __ptext6 00A1  
                        __ptext7 0255                          __ptext8 0268                          __ptext9 02D2  
                  ?_set_pwm_freq 0038                i1___lwdiv@divisor 0076            _OSCILLATOR_Initialize 02D9  
                   __size_of_map 0025                     __size_of_isr 003B                i1___lwdiv@counter 007D  
           __size_ofi1_i2c_start 000A             __size_ofi1_i2c_write 0010         ??_PIN_MANAGER_Initialize 0030  
                        _set_pwm 0179       __size_of_SYSTEM_Initialize 000A             end_of_initialization 0044  
                        isr@data 002F             __size_of_servo_write 0029                        _RCSTAbits 019D  
               ??_WDT_Initialize 0030                   ??_set_pwm_freq 003A                    i2c_write@data 0030  
                      i1___lwdiv 00DE                       map@out_max 0028                       map@out_min 0026  
                      _TXSTAbits 019E                   __end_of___wmul 0208                   __end_of__write 0255  
         ?_OSCILLATOR_Initialize 0070              start_initialization 0041  __size_of_PIN_MANAGER_Initialize 001B  
                      _i2c_start 02AB                      __end_of_map 01C6                      __end_of_isr 003F  
                      _i2c_write 0268                       ?i1___lwdiv 0076                __size_of_i2c_read 001B  
              __size_of_i2c_wait 000C                __size_of_i2c_stop 0007                         ??___wmul 0074  
                       ??__write 0032      __size_of_i2c_repeated_start 000A             set_pwm_freq@prescale 003B  
                      ___latbits 0003                    __pcstackBANK0 0020                       ?_i2c_start 0070  
                     ?_i2c_write 0070                  i1i2c_write@data 0070             __end_of_set_pwm_freq 00A1  
               ___lwdiv@dividend 0032           _PIN_MANAGER_Initialize 0223                         ?___lwdiv 0030  
                       ?_set_pwm 0071                   __size_of__read 0023                 ___lwdiv@quotient 0035  
                    ??i1___lwdiv 007A                   ___wmul@product 0074                 set_pwm_freq@freq 0038  
                       _PIE1bits 0091                       set_pwm@off 0073                       set_pwm@num 0076  
                       _PIR1bits 0011                        map@in_max 0024                        map@in_min 0022  
                  ??i1_i2c_start 0070                    ??i1_i2c_write 0070                ___wmul@multiplier 0070  
                    __write@addr 0032                      ??_i2c_start 0030                      ??_i2c_write 0030  
                  ??_servo_write 007E                         _i2c_read 0208                         _i2c_wait 0289  
                       _i2c_stop 02D2          ??_OSCILLATOR_Initialize 0030                 __size_of___lwdiv 003D  
                ___lwdiv@divisor 0030              __end_ofi1_i2c_start 02C9                  ___lwdiv@counter 0037  
            __end_ofi1_i2c_write 0289                         __ptext10 02AB                         __ptext11 0289  
                       __ptext20 02E0                         __ptext12 02B5                         __ptext21 02BF  
                       __ptext13 02E7                         __ptext22 0295                         __ptext14 0223  
                       __ptext23 01A1                         __ptext15 02D9                         __ptext24 00DE  
                       __ptext25 01E9                         __ptext17 0150                         __ptext26 02C9  
                       __ptext18 0179                         __ptext19 0279                 __size_of_set_pwm 0028  
          __size_of_set_pwm_freq 0059                         __write@d 0031               i1___lwdiv@dividend 0078  
                  __size_of_main 0036                    __size_of_init 0013                    __size_of_send 0009  
            __end_of_servo_write 0179                        set_pwm@on 0071                         int$flags 007E  
             i1___lwdiv@quotient 007B                     _set_pwm_freq 0048               set_pwm_freq@oldreg 003F  
             set_pwm_freq@newreg 003C          __size_of_WDT_Initialize 0004                         intlevel1 0000  
                       send@data 0070          ?_PIN_MANAGER_Initialize 0070       __end_of_i2c_repeated_start 02AB  
                    i1_i2c_start 02BF                      i1_i2c_write 0279                      _SSPCON1bits 0215  
                    _SSPCON2bits 0216                       i1_i2c_wait 0295                       i1_i2c_stop 02E0  
                    _servo_write 0150   __end_of_PIN_MANAGER_Initialize 023E  
