

Microchip MPLAB XC8 Assembler V2.32 build 20210201212658 
                                                                                               Sat Jul 10 19:42:28 2021

Microchip MPLAB XC8 C Compiler v2.32 (Free license) build 20210201212658 Og1 
     1                           	processor	16F1938
     2                           	pagewidth 120
     3                           	opt	flic
     4                           	psect	cinit,global,class=CODE,merge=1,delta=2
     5                           	psect	bssBANK0,global,class=BANK0,space=1,delta=1,noexec
     6                           	psect	cstackCOMMON,global,class=COMMON,space=1,delta=1,noexec
     7                           	psect	cstackBANK0,global,class=BANK0,space=1,delta=1,noexec
     8                           	psect	maintext,global,class=CODE,merge=1,split=1,delta=2
     9                           	psect	text1,local,class=CODE,merge=1,delta=2
    10                           	psect	text2,local,class=CODE,merge=1,delta=2
    11                           	psect	text3,local,class=CODE,merge=1,delta=2
    12                           	psect	text4,local,class=CODE,merge=1,delta=2
    13                           	psect	text5,local,class=CODE,merge=1,delta=2
    14                           	psect	text6,local,class=CODE,merge=1,delta=2,group=1
    15                           	psect	text7,local,class=CODE,merge=1,delta=2
    16                           	psect	text8,local,class=CODE,merge=1,delta=2
    17                           	psect	text9,local,class=CODE,merge=1,delta=2
    18                           	psect	text10,local,class=CODE,merge=1,delta=2
    19                           	psect	text11,local,class=CODE,merge=1,delta=2
    20                           	psect	text12,local,class=CODE,merge=1,delta=2
    21                           	psect	text13,local,class=CODE,merge=1,delta=2
    22                           	psect	text14,local,class=CODE,merge=1,delta=2
    23                           	psect	text15,local,class=CODE,merge=1,delta=2
    24                           	psect	intentry,global,class=CODE,delta=2
    25                           	psect	text17,local,class=CODE,merge=1,delta=2
    26                           	psect	text18,local,class=CODE,merge=1,delta=2
    27                           	psect	text19,local,class=CODE,merge=1,delta=2
    28                           	psect	text20,local,class=CODE,merge=1,delta=2
    29                           	psect	text21,local,class=CODE,merge=1,delta=2
    30                           	psect	text22,local,class=CODE,merge=1,delta=2
    31                           	psect	text23,local,class=CODE,merge=1,delta=2
    32                           	psect	text24,local,class=CODE,merge=1,delta=2
    33                           	psect	text25,local,class=CODE,merge=1,delta=2,group=1
    34                           	psect	text26,local,class=CODE,merge=1,delta=2
    35                           	psect	config,global,abs,ovrld,class=CONFIG,space=4,delta=2,noexec
    36                           	dabs	1,0x7E,2
    37  0000                     
    38                           ; Version 2.32
    39                           ; Generated 02/02/2021 GMT
    40                           ; 
    41                           ; Copyright © 2021, Microchip Technology Inc. and its subsidiaries ("Microchip")
    42                           ; All rights reserved.
    43                           ; 
    44                           ; This software is developed by Microchip Technology Inc. and its subsidiaries ("Microch
      +                          ip").
    45                           ; 
    46                           ; Redistribution and use in source and binary forms, with or without modification, are
    47                           ; permitted provided that the following conditions are met:
    48                           ; 
    49                           ;     1. Redistributions of source code must retain the above copyright notice, this lis
      +                          t of
    50                           ;        conditions and the following disclaimer.
    51                           ; 
    52                           ;     2. Redistributions in binary form must reproduce the above copyright notice, this 
      +                          list
    53                           ;        of conditions and the following disclaimer in the documentation and/or other
    54                           ;        materials provided with the distribution. Publication is not required when
    55                           ;        this file is used in an embedded application.
    56                           ; 
    57                           ;     3. Microchip's name may not be used to endorse or promote products derived from th
      +                          is
    58                           ;        software without specific prior written permission.
    59                           ; 
    60                           ; THIS SOFTWARE IS PROVIDED BY MICROCHIP "AS IS" AND ANY EXPRESS OR IMPLIED WARRANTIES,
    61                           ; INCLUDING, BUT NOT LIMITED TO, THE IMPLIED WARRANTIES OF MERCHANTABILITY AND FITNESS F
      +                          OR
    62                           ; PURPOSE ARE DISCLAIMED.  IN NO EVENT SHALL MICROCHIP BE LIABLE FOR ANY DIRECT, INDIREC
      +                          T,
    63                           ; INCIDENTAL, SPECIAL, EXEMPLARY, OR CONSEQUENTIAL DAMAGES (INCLUDING BUT NOT LIMITED TO
    64                           ; PROCUREMENT OF SUBSTITUTE GOODS OR SERVICES; LOSS OF USE, DATA OR PROFITS; OR BUSINESS
    65                           ; INTERRUPTION) HOWSOEVER CAUSED AND ON ANY THEORY OF LIABILITY, WHETHER IN CONTRACT, ST
      +                          RICT
    66                           ; LIABILITY, OR TORT (INCLUDING NEGLIGENCE OR OTHERWISE) ARISING IN ANY WAY OUT OF THE U
      +                          SE OF
    67                           ; THIS SOFTWARE, EVEN IF ADVISED OF THE POSSIBILITY OF SUCH DAMAGE.
    68                           ; 
    69                           ; 
    70                           ; Code-generator required, PIC16F1938 Definitions
    71                           ; 
    72                           ; SFR Addresses
    73  0000                     	;# 
    74  0001                     	;# 
    75  0002                     	;# 
    76  0003                     	;# 
    77  0004                     	;# 
    78  0005                     	;# 
    79  0006                     	;# 
    80  0007                     	;# 
    81  0008                     	;# 
    82  0009                     	;# 
    83  000A                     	;# 
    84  000B                     	;# 
    85  000C                     	;# 
    86  000D                     	;# 
    87  000E                     	;# 
    88  0010                     	;# 
    89  0011                     	;# 
    90  0012                     	;# 
    91  0013                     	;# 
    92  0015                     	;# 
    93  0016                     	;# 
    94  0016                     	;# 
    95  0017                     	;# 
    96  0018                     	;# 
    97  0019                     	;# 
    98  001A                     	;# 
    99  001B                     	;# 
   100  001C                     	;# 
   101  001E                     	;# 
   102  001F                     	;# 
   103  008C                     	;# 
   104  008D                     	;# 
   105  008E                     	;# 
   106  0090                     	;# 
   107  0091                     	;# 
   108  0092                     	;# 
   109  0093                     	;# 
   110  0095                     	;# 
   111  0096                     	;# 
   112  0097                     	;# 
   113  0098                     	;# 
   114  0099                     	;# 
   115  009A                     	;# 
   116  009B                     	;# 
   117  009B                     	;# 
   118  009C                     	;# 
   119  009D                     	;# 
   120  009E                     	;# 
   121  010C                     	;# 
   122  010D                     	;# 
   123  010E                     	;# 
   124  0110                     	;# 
   125  0111                     	;# 
   126  0112                     	;# 
   127  0113                     	;# 
   128  0114                     	;# 
   129  0115                     	;# 
   130  0116                     	;# 
   131  0117                     	;# 
   132  0118                     	;# 
   133  0119                     	;# 
   134  011A                     	;# 
   135  011B                     	;# 
   136  011D                     	;# 
   137  018C                     	;# 
   138  018D                     	;# 
   139  0191                     	;# 
   140  0191                     	;# 
   141  0192                     	;# 
   142  0193                     	;# 
   143  0193                     	;# 
   144  0193                     	;# 
   145  0194                     	;# 
   146  0195                     	;# 
   147  0196                     	;# 
   148  0199                     	;# 
   149  019A                     	;# 
   150  019B                     	;# 
   151  019B                     	;# 
   152  019B                     	;# 
   153  019B                     	;# 
   154  019C                     	;# 
   155  019C                     	;# 
   156  019D                     	;# 
   157  019E                     	;# 
   158  019F                     	;# 
   159  020D                     	;# 
   160  0210                     	;# 
   161  0211                     	;# 
   162  0212                     	;# 
   163  0213                     	;# 
   164  0214                     	;# 
   165  0215                     	;# 
   166  0215                     	;# 
   167  0216                     	;# 
   168  0217                     	;# 
   169  0291                     	;# 
   170  0291                     	;# 
   171  0292                     	;# 
   172  0293                     	;# 
   173  0294                     	;# 
   174  0295                     	;# 
   175  0295                     	;# 
   176  0296                     	;# 
   177  0298                     	;# 
   178  0298                     	;# 
   179  0299                     	;# 
   180  029A                     	;# 
   181  029B                     	;# 
   182  029C                     	;# 
   183  029C                     	;# 
   184  029D                     	;# 
   185  029E                     	;# 
   186  029F                     	;# 
   187  0311                     	;# 
   188  0311                     	;# 
   189  0312                     	;# 
   190  0313                     	;# 
   191  0314                     	;# 
   192  0315                     	;# 
   193  0315                     	;# 
   194  0316                     	;# 
   195  0318                     	;# 
   196  0318                     	;# 
   197  0319                     	;# 
   198  031A                     	;# 
   199  031C                     	;# 
   200  031C                     	;# 
   201  031D                     	;# 
   202  031E                     	;# 
   203  0394                     	;# 
   204  0395                     	;# 
   205  0396                     	;# 
   206  0415                     	;# 
   207  0416                     	;# 
   208  0417                     	;# 
   209  041C                     	;# 
   210  041D                     	;# 
   211  041E                     	;# 
   212  0791                     	;# 
   213  0792                     	;# 
   214  0793                     	;# 
   215  0794                     	;# 
   216  0795                     	;# 
   217  0798                     	;# 
   218  0799                     	;# 
   219  07A0                     	;# 
   220  07A1                     	;# 
   221  07A3                     	;# 
   222  07A4                     	;# 
   223  07A6                     	;# 
   224  07A7                     	;# 
   225  07A9                     	;# 
   226  07AA                     	;# 
   227  0FE4                     	;# 
   228  0FE5                     	;# 
   229  0FE6                     	;# 
   230  0FE7                     	;# 
   231  0FE8                     	;# 
   232  0FE9                     	;# 
   233  0FEA                     	;# 
   234  0FEB                     	;# 
   235  0FED                     	;# 
   236  0FEE                     	;# 
   237  0FEF                     	;# 
   238  0000                     	;# 
   239  0001                     	;# 
   240  0002                     	;# 
   241  0003                     	;# 
   242  0004                     	;# 
   243  0005                     	;# 
   244  0006                     	;# 
   245  0007                     	;# 
   246  0008                     	;# 
   247  0009                     	;# 
   248  000A                     	;# 
   249  000B                     	;# 
   250  000C                     	;# 
   251  000D                     	;# 
   252  000E                     	;# 
   253  0010                     	;# 
   254  0011                     	;# 
   255  0012                     	;# 
   256  0013                     	;# 
   257  0015                     	;# 
   258  0016                     	;# 
   259  0016                     	;# 
   260  0017                     	;# 
   261  0018                     	;# 
   262  0019                     	;# 
   263  001A                     	;# 
   264  001B                     	;# 
   265  001C                     	;# 
   266  001E                     	;# 
   267  001F                     	;# 
   268  008C                     	;# 
   269  008D                     	;# 
   270  008E                     	;# 
   271  0090                     	;# 
   272  0091                     	;# 
   273  0092                     	;# 
   274  0093                     	;# 
   275  0095                     	;# 
   276  0096                     	;# 
   277  0097                     	;# 
   278  0098                     	;# 
   279  0099                     	;# 
   280  009A                     	;# 
   281  009B                     	;# 
   282  009B                     	;# 
   283  009C                     	;# 
   284  009D                     	;# 
   285  009E                     	;# 
   286  010C                     	;# 
   287  010D                     	;# 
   288  010E                     	;# 
   289  0110                     	;# 
   290  0111                     	;# 
   291  0112                     	;# 
   292  0113                     	;# 
   293  0114                     	;# 
   294  0115                     	;# 
   295  0116                     	;# 
   296  0117                     	;# 
   297  0118                     	;# 
   298  0119                     	;# 
   299  011A                     	;# 
   300  011B                     	;# 
   301  011D                     	;# 
   302  018C                     	;# 
   303  018D                     	;# 
   304  0191                     	;# 
   305  0191                     	;# 
   306  0192                     	;# 
   307  0193                     	;# 
   308  0193                     	;# 
   309  0193                     	;# 
   310  0194                     	;# 
   311  0195                     	;# 
   312  0196                     	;# 
   313  0199                     	;# 
   314  019A                     	;# 
   315  019B                     	;# 
   316  019B                     	;# 
   317  019B                     	;# 
   318  019B                     	;# 
   319  019C                     	;# 
   320  019C                     	;# 
   321  019D                     	;# 
   322  019E                     	;# 
   323  019F                     	;# 
   324  020D                     	;# 
   325  0210                     	;# 
   326  0211                     	;# 
   327  0212                     	;# 
   328  0213                     	;# 
   329  0214                     	;# 
   330  0215                     	;# 
   331  0215                     	;# 
   332  0216                     	;# 
   333  0217                     	;# 
   334  0291                     	;# 
   335  0291                     	;# 
   336  0292                     	;# 
   337  0293                     	;# 
   338  0294                     	;# 
   339  0295                     	;# 
   340  0295                     	;# 
   341  0296                     	;# 
   342  0298                     	;# 
   343  0298                     	;# 
   344  0299                     	;# 
   345  029A                     	;# 
   346  029B                     	;# 
   347  029C                     	;# 
   348  029C                     	;# 
   349  029D                     	;# 
   350  029E                     	;# 
   351  029F                     	;# 
   352  0311                     	;# 
   353  0311                     	;# 
   354  0312                     	;# 
   355  0313                     	;# 
   356  0314                     	;# 
   357  0315                     	;# 
   358  0315                     	;# 
   359  0316                     	;# 
   360  0318                     	;# 
   361  0318                     	;# 
   362  0319                     	;# 
   363  031A                     	;# 
   364  031C                     	;# 
   365  031C                     	;# 
   366  031D                     	;# 
   367  031E                     	;# 
   368  0394                     	;# 
   369  0395                     	;# 
   370  0396                     	;# 
   371  0415                     	;# 
   372  0416                     	;# 
   373  0417                     	;# 
   374  041C                     	;# 
   375  041D                     	;# 
   376  041E                     	;# 
   377  0791                     	;# 
   378  0792                     	;# 
   379  0793                     	;# 
   380  0794                     	;# 
   381  0795                     	;# 
   382  0798                     	;# 
   383  0799                     	;# 
   384  07A0                     	;# 
   385  07A1                     	;# 
   386  07A3                     	;# 
   387  07A4                     	;# 
   388  07A6                     	;# 
   389  07A7                     	;# 
   390  07A9                     	;# 
   391  07AA                     	;# 
   392  0FE4                     	;# 
   393  0FE5                     	;# 
   394  0FE6                     	;# 
   395  0FE7                     	;# 
   396  0FE8                     	;# 
   397  0FE9                     	;# 
   398  0FEA                     	;# 
   399  0FEB                     	;# 
   400  0FED                     	;# 
   401  0FEE                     	;# 
   402  0FEF                     	;# 
   403  0000                     	;# 
   404  0001                     	;# 
   405  0002                     	;# 
   406  0003                     	;# 
   407  0004                     	;# 
   408  0005                     	;# 
   409  0006                     	;# 
   410  0007                     	;# 
   411  0008                     	;# 
   412  0009                     	;# 
   413  000A                     	;# 
   414  000B                     	;# 
   415  000C                     	;# 
   416  000D                     	;# 
   417  000E                     	;# 
   418  0010                     	;# 
   419  0011                     	;# 
   420  0012                     	;# 
   421  0013                     	;# 
   422  0015                     	;# 
   423  0016                     	;# 
   424  0016                     	;# 
   425  0017                     	;# 
   426  0018                     	;# 
   427  0019                     	;# 
   428  001A                     	;# 
   429  001B                     	;# 
   430  001C                     	;# 
   431  001E                     	;# 
   432  001F                     	;# 
   433  008C                     	;# 
   434  008D                     	;# 
   435  008E                     	;# 
   436  0090                     	;# 
   437  0091                     	;# 
   438  0092                     	;# 
   439  0093                     	;# 
   440  0095                     	;# 
   441  0096                     	;# 
   442  0097                     	;# 
   443  0098                     	;# 
   444  0099                     	;# 
   445  009A                     	;# 
   446  009B                     	;# 
   447  009B                     	;# 
   448  009C                     	;# 
   449  009D                     	;# 
   450  009E                     	;# 
   451  010C                     	;# 
   452  010D                     	;# 
   453  010E                     	;# 
   454  0110                     	;# 
   455  0111                     	;# 
   456  0112                     	;# 
   457  0113                     	;# 
   458  0114                     	;# 
   459  0115                     	;# 
   460  0116                     	;# 
   461  0117                     	;# 
   462  0118                     	;# 
   463  0119                     	;# 
   464  011A                     	;# 
   465  011B                     	;# 
   466  011D                     	;# 
   467  018C                     	;# 
   468  018D                     	;# 
   469  0191                     	;# 
   470  0191                     	;# 
   471  0192                     	;# 
   472  0193                     	;# 
   473  0193                     	;# 
   474  0193                     	;# 
   475  0194                     	;# 
   476  0195                     	;# 
   477  0196                     	;# 
   478  0199                     	;# 
   479  019A                     	;# 
   480  019B                     	;# 
   481  019B                     	;# 
   482  019B                     	;# 
   483  019B                     	;# 
   484  019C                     	;# 
   485  019C                     	;# 
   486  019D                     	;# 
   487  019E                     	;# 
   488  019F                     	;# 
   489  020D                     	;# 
   490  0210                     	;# 
   491  0211                     	;# 
   492  0212                     	;# 
   493  0213                     	;# 
   494  0214                     	;# 
   495  0215                     	;# 
   496  0215                     	;# 
   497  0216                     	;# 
   498  0217                     	;# 
   499  0291                     	;# 
   500  0291                     	;# 
   501  0292                     	;# 
   502  0293                     	;# 
   503  0294                     	;# 
   504  0295                     	;# 
   505  0295                     	;# 
   506  0296                     	;# 
   507  0298                     	;# 
   508  0298                     	;# 
   509  0299                     	;# 
   510  029A                     	;# 
   511  029B                     	;# 
   512  029C                     	;# 
   513  029C                     	;# 
   514  029D                     	;# 
   515  029E                     	;# 
   516  029F                     	;# 
   517  0311                     	;# 
   518  0311                     	;# 
   519  0312                     	;# 
   520  0313                     	;# 
   521  0314                     	;# 
   522  0315                     	;# 
   523  0315                     	;# 
   524  0316                     	;# 
   525  0318                     	;# 
   526  0318                     	;# 
   527  0319                     	;# 
   528  031A                     	;# 
   529  031C                     	;# 
   530  031C                     	;# 
   531  031D                     	;# 
   532  031E                     	;# 
   533  0394                     	;# 
   534  0395                     	;# 
   535  0396                     	;# 
   536  0415                     	;# 
   537  0416                     	;# 
   538  0417                     	;# 
   539  041C                     	;# 
   540  041D                     	;# 
   541  041E                     	;# 
   542  0791                     	;# 
   543  0792                     	;# 
   544  0793                     	;# 
   545  0794                     	;# 
   546  0795                     	;# 
   547  0798                     	;# 
   548  0799                     	;# 
   549  07A0                     	;# 
   550  07A1                     	;# 
   551  07A3                     	;# 
   552  07A4                     	;# 
   553  07A6                     	;# 
   554  07A7                     	;# 
   555  07A9                     	;# 
   556  07AA                     	;# 
   557  0FE4                     	;# 
   558  0FE5                     	;# 
   559  0FE6                     	;# 
   560  0FE7                     	;# 
   561  0FE8                     	;# 
   562  0FE9                     	;# 
   563  0FEA                     	;# 
   564  0FEB                     	;# 
   565  0FED                     	;# 
   566  0FEE                     	;# 
   567  0FEF                     	;# 
   568  0000                     	;# 
   569  0001                     	;# 
   570  0002                     	;# 
   571  0003                     	;# 
   572  0004                     	;# 
   573  0005                     	;# 
   574  0006                     	;# 
   575  0007                     	;# 
   576  0008                     	;# 
   577  0009                     	;# 
   578  000A                     	;# 
   579  000B                     	;# 
   580  000C                     	;# 
   581  000D                     	;# 
   582  000E                     	;# 
   583  0010                     	;# 
   584  0011                     	;# 
   585  0012                     	;# 
   586  0013                     	;# 
   587  0015                     	;# 
   588  0016                     	;# 
   589  0016                     	;# 
   590  0017                     	;# 
   591  0018                     	;# 
   592  0019                     	;# 
   593  001A                     	;# 
   594  001B                     	;# 
   595  001C                     	;# 
   596  001E                     	;# 
   597  001F                     	;# 
   598  008C                     	;# 
   599  008D                     	;# 
   600  008E                     	;# 
   601  0090                     	;# 
   602  0091                     	;# 
   603  0092                     	;# 
   604  0093                     	;# 
   605  0095                     	;# 
   606  0096                     	;# 
   607  0097                     	;# 
   608  0098                     	;# 
   609  0099                     	;# 
   610  009A                     	;# 
   611  009B                     	;# 
   612  009B                     	;# 
   613  009C                     	;# 
   614  009D                     	;# 
   615  009E                     	;# 
   616  010C                     	;# 
   617  010D                     	;# 
   618  010E                     	;# 
   619  0110                     	;# 
   620  0111                     	;# 
   621  0112                     	;# 
   622  0113                     	;# 
   623  0114                     	;# 
   624  0115                     	;# 
   625  0116                     	;# 
   626  0117                     	;# 
   627  0118                     	;# 
   628  0119                     	;# 
   629  011A                     	;# 
   630  011B                     	;# 
   631  011D                     	;# 
   632  018C                     	;# 
   633  018D                     	;# 
   634  0191                     	;# 
   635  0191                     	;# 
   636  0192                     	;# 
   637  0193                     	;# 
   638  0193                     	;# 
   639  0193                     	;# 
   640  0194                     	;# 
   641  0195                     	;# 
   642  0196                     	;# 
   643  0199                     	;# 
   644  019A                     	;# 
   645  019B                     	;# 
   646  019B                     	;# 
   647  019B                     	;# 
   648  019B                     	;# 
   649  019C                     	;# 
   650  019C                     	;# 
   651  019D                     	;# 
   652  019E                     	;# 
   653  019F                     	;# 
   654  020D                     	;# 
   655  0210                     	;# 
   656  0211                     	;# 
   657  0212                     	;# 
   658  0213                     	;# 
   659  0214                     	;# 
   660  0215                     	;# 
   661  0215                     	;# 
   662  0216                     	;# 
   663  0217                     	;# 
   664  0291                     	;# 
   665  0291                     	;# 
   666  0292                     	;# 
   667  0293                     	;# 
   668  0294                     	;# 
   669  0295                     	;# 
   670  0295                     	;# 
   671  0296                     	;# 
   672  0298                     	;# 
   673  0298                     	;# 
   674  0299                     	;# 
   675  029A                     	;# 
   676  029B                     	;# 
   677  029C                     	;# 
   678  029C                     	;# 
   679  029D                     	;# 
   680  029E                     	;# 
   681  029F                     	;# 
   682  0311                     	;# 
   683  0311                     	;# 
   684  0312                     	;# 
   685  0313                     	;# 
   686  0314                     	;# 
   687  0315                     	;# 
   688  0315                     	;# 
   689  0316                     	;# 
   690  0318                     	;# 
   691  0318                     	;# 
   692  0319                     	;# 
   693  031A                     	;# 
   694  031C                     	;# 
   695  031C                     	;# 
   696  031D                     	;# 
   697  031E                     	;# 
   698  0394                     	;# 
   699  0395                     	;# 
   700  0396                     	;# 
   701  0415                     	;# 
   702  0416                     	;# 
   703  0417                     	;# 
   704  041C                     	;# 
   705  041D                     	;# 
   706  041E                     	;# 
   707  0791                     	;# 
   708  0792                     	;# 
   709  0793                     	;# 
   710  0794                     	;# 
   711  0795                     	;# 
   712  0798                     	;# 
   713  0799                     	;# 
   714  07A0                     	;# 
   715  07A1                     	;# 
   716  07A3                     	;# 
   717  07A4                     	;# 
   718  07A6                     	;# 
   719  07A7                     	;# 
   720  07A9                     	;# 
   721  07AA                     	;# 
   722  0FE4                     	;# 
   723  0FE5                     	;# 
   724  0FE6                     	;# 
   725  0FE7                     	;# 
   726  0FE8                     	;# 
   727  0FE9                     	;# 
   728  0FEA                     	;# 
   729  0FEB                     	;# 
   730  0FED                     	;# 
   731  0FEE                     	;# 
   732  0FEF                     	;# 
   733  0000                     	;# 
   734  0001                     	;# 
   735  0002                     	;# 
   736  0003                     	;# 
   737  0004                     	;# 
   738  0005                     	;# 
   739  0006                     	;# 
   740  0007                     	;# 
   741  0008                     	;# 
   742  0009                     	;# 
   743  000A                     	;# 
   744  000B                     	;# 
   745  000C                     	;# 
   746  000D                     	;# 
   747  000E                     	;# 
   748  0010                     	;# 
   749  0011                     	;# 
   750  0012                     	;# 
   751  0013                     	;# 
   752  0015                     	;# 
   753  0016                     	;# 
   754  0016                     	;# 
   755  0017                     	;# 
   756  0018                     	;# 
   757  0019                     	;# 
   758  001A                     	;# 
   759  001B                     	;# 
   760  001C                     	;# 
   761  001E                     	;# 
   762  001F                     	;# 
   763  008C                     	;# 
   764  008D                     	;# 
   765  008E                     	;# 
   766  0090                     	;# 
   767  0091                     	;# 
   768  0092                     	;# 
   769  0093                     	;# 
   770  0095                     	;# 
   771  0096                     	;# 
   772  0097                     	;# 
   773  0098                     	;# 
   774  0099                     	;# 
   775  009A                     	;# 
   776  009B                     	;# 
   777  009B                     	;# 
   778  009C                     	;# 
   779  009D                     	;# 
   780  009E                     	;# 
   781  010C                     	;# 
   782  010D                     	;# 
   783  010E                     	;# 
   784  0110                     	;# 
   785  0111                     	;# 
   786  0112                     	;# 
   787  0113                     	;# 
   788  0114                     	;# 
   789  0115                     	;# 
   790  0116                     	;# 
   791  0117                     	;# 
   792  0118                     	;# 
   793  0119                     	;# 
   794  011A                     	;# 
   795  011B                     	;# 
   796  011D                     	;# 
   797  018C                     	;# 
   798  018D                     	;# 
   799  0191                     	;# 
   800  0191                     	;# 
   801  0192                     	;# 
   802  0193                     	;# 
   803  0193                     	;# 
   804  0193                     	;# 
   805  0194                     	;# 
   806  0195                     	;# 
   807  0196                     	;# 
   808  0199                     	;# 
   809  019A                     	;# 
   810  019B                     	;# 
   811  019B                     	;# 
   812  019B                     	;# 
   813  019B                     	;# 
   814  019C                     	;# 
   815  019C                     	;# 
   816  019D                     	;# 
   817  019E                     	;# 
   818  019F                     	;# 
   819  020D                     	;# 
   820  0210                     	;# 
   821  0211                     	;# 
   822  0212                     	;# 
   823  0213                     	;# 
   824  0214                     	;# 
   825  0215                     	;# 
   826  0215                     	;# 
   827  0216                     	;# 
   828  0217                     	;# 
   829  0291                     	;# 
   830  0291                     	;# 
   831  0292                     	;# 
   832  0293                     	;# 
   833  0294                     	;# 
   834  0295                     	;# 
   835  0295                     	;# 
   836  0296                     	;# 
   837  0298                     	;# 
   838  0298                     	;# 
   839  0299                     	;# 
   840  029A                     	;# 
   841  029B                     	;# 
   842  029C                     	;# 
   843  029C                     	;# 
   844  029D                     	;# 
   845  029E                     	;# 
   846  029F                     	;# 
   847  0311                     	;# 
   848  0311                     	;# 
   849  0312                     	;# 
   850  0313                     	;# 
   851  0314                     	;# 
   852  0315                     	;# 
   853  0315                     	;# 
   854  0316                     	;# 
   855  0318                     	;# 
   856  0318                     	;# 
   857  0319                     	;# 
   858  031A                     	;# 
   859  031C                     	;# 
   860  031C                     	;# 
   861  031D                     	;# 
   862  031E                     	;# 
   863  0394                     	;# 
   864  0395                     	;# 
   865  0396                     	;# 
   866  0415                     	;# 
   867  0416                     	;# 
   868  0417                     	;# 
   869  041C                     	;# 
   870  041D                     	;# 
   871  041E                     	;# 
   872  0791                     	;# 
   873  0792                     	;# 
   874  0793                     	;# 
   875  0794                     	;# 
   876  0795                     	;# 
   877  0798                     	;# 
   878  0799                     	;# 
   879  07A0                     	;# 
   880  07A1                     	;# 
   881  07A3                     	;# 
   882  07A4                     	;# 
   883  07A6                     	;# 
   884  07A7                     	;# 
   885  07A9                     	;# 
   886  07AA                     	;# 
   887  0FE4                     	;# 
   888  0FE5                     	;# 
   889  0FE6                     	;# 
   890  0FE7                     	;# 
   891  0FE8                     	;# 
   892  0FE9                     	;# 
   893  0FEA                     	;# 
   894  0FEB                     	;# 
   895  0FED                     	;# 
   896  0FEE                     	;# 
   897  0FEF                     	;# 
   898  0000                     	;# 
   899  0001                     	;# 
   900  0002                     	;# 
   901  0003                     	;# 
   902  0004                     	;# 
   903  0005                     	;# 
   904  0006                     	;# 
   905  0007                     	;# 
   906  0008                     	;# 
   907  0009                     	;# 
   908  000A                     	;# 
   909  000B                     	;# 
   910  000C                     	;# 
   911  000D                     	;# 
   912  000E                     	;# 
   913  0010                     	;# 
   914  0011                     	;# 
   915  0012                     	;# 
   916  0013                     	;# 
   917  0015                     	;# 
   918  0016                     	;# 
   919  0016                     	;# 
   920  0017                     	;# 
   921  0018                     	;# 
   922  0019                     	;# 
   923  001A                     	;# 
   924  001B                     	;# 
   925  001C                     	;# 
   926  001E                     	;# 
   927  001F                     	;# 
   928  008C                     	;# 
   929  008D                     	;# 
   930  008E                     	;# 
   931  0090                     	;# 
   932  0091                     	;# 
   933  0092                     	;# 
   934  0093                     	;# 
   935  0095                     	;# 
   936  0096                     	;# 
   937  0097                     	;# 
   938  0098                     	;# 
   939  0099                     	;# 
   940  009A                     	;# 
   941  009B                     	;# 
   942  009B                     	;# 
   943  009C                     	;# 
   944  009D                     	;# 
   945  009E                     	;# 
   946  010C                     	;# 
   947  010D                     	;# 
   948  010E                     	;# 
   949  0110                     	;# 
   950  0111                     	;# 
   951  0112                     	;# 
   952  0113                     	;# 
   953  0114                     	;# 
   954  0115                     	;# 
   955  0116                     	;# 
   956  0117                     	;# 
   957  0118                     	;# 
   958  0119                     	;# 
   959  011A                     	;# 
   960  011B                     	;# 
   961  011D                     	;# 
   962  018C                     	;# 
   963  018D                     	;# 
   964  0191                     	;# 
   965  0191                     	;# 
   966  0192                     	;# 
   967  0193                     	;# 
   968  0193                     	;# 
   969  0193                     	;# 
   970  0194                     	;# 
   971  0195                     	;# 
   972  0196                     	;# 
   973  0199                     	;# 
   974  019A                     	;# 
   975  019B                     	;# 
   976  019B                     	;# 
   977  019B                     	;# 
   978  019B                     	;# 
   979  019C                     	;# 
   980  019C                     	;# 
   981  019D                     	;# 
   982  019E                     	;# 
   983  019F                     	;# 
   984  020D                     	;# 
   985  0210                     	;# 
   986  0211                     	;# 
   987  0212                     	;# 
   988  0213                     	;# 
   989  0214                     	;# 
   990  0215                     	;# 
   991  0215                     	;# 
   992  0216                     	;# 
   993  0217                     	;# 
   994  0291                     	;# 
   995  0291                     	;# 
   996  0292                     	;# 
   997  0293                     	;# 
   998  0294                     	;# 
   999  0295                     	;# 
  1000  0295                     	;# 
  1001  0296                     	;# 
  1002  0298                     	;# 
  1003  0298                     	;# 
  1004  0299                     	;# 
  1005  029A                     	;# 
  1006  029B                     	;# 
  1007  029C                     	;# 
  1008  029C                     	;# 
  1009  029D                     	;# 
  1010  029E                     	;# 
  1011  029F                     	;# 
  1012  0311                     	;# 
  1013  0311                     	;# 
  1014  0312                     	;# 
  1015  0313                     	;# 
  1016  0314                     	;# 
  1017  0315                     	;# 
  1018  0315                     	;# 
  1019  0316                     	;# 
  1020  0318                     	;# 
  1021  0318                     	;# 
  1022  0319                     	;# 
  1023  031A                     	;# 
  1024  031C                     	;# 
  1025  031C                     	;# 
  1026  031D                     	;# 
  1027  031E                     	;# 
  1028  0394                     	;# 
  1029  0395                     	;# 
  1030  0396                     	;# 
  1031  0415                     	;# 
  1032  0416                     	;# 
  1033  0417                     	;# 
  1034  041C                     	;# 
  1035  041D                     	;# 
  1036  041E                     	;# 
  1037  0791                     	;# 
  1038  0792                     	;# 
  1039  0793                     	;# 
  1040  0794                     	;# 
  1041  0795                     	;# 
  1042  0798                     	;# 
  1043  0799                     	;# 
  1044  07A0                     	;# 
  1045  07A1                     	;# 
  1046  07A3                     	;# 
  1047  07A4                     	;# 
  1048  07A6                     	;# 
  1049  07A7                     	;# 
  1050  07A9                     	;# 
  1051  07AA                     	;# 
  1052  0FE4                     	;# 
  1053  0FE5                     	;# 
  1054  0FE6                     	;# 
  1055  0FE7                     	;# 
  1056  0FE8                     	;# 
  1057  0FE9                     	;# 
  1058  0FEA                     	;# 
  1059  0FEB                     	;# 
  1060  0FED                     	;# 
  1061  0FEE                     	;# 
  1062  0FEF                     	;# 
  1063  0011                     _PIR1bits	set	17
  1064  005F                     _GIE	set	95
  1065  005E                     _PEIE	set	94
  1066  0091                     _PIE1bits	set	145
  1067  0097                     _WDTCON	set	151
  1068  0098                     _OSCTUNE	set	152
  1069  0099                     _OSCCON	set	153
  1070  0095                     _OPTION_REGbits	set	149
  1071  008E                     _TRISC	set	142
  1072  008D                     _TRISB	set	141
  1073  008C                     _TRISA	set	140
  1074  0090                     _TRISE	set	144
  1075  0116                     _BORCON	set	278
  1076  011D                     _APFCON	set	285
  1077  010E                     _LATC	set	270
  1078  010D                     _LATB	set	269
  1079  010C                     _LATA	set	268
  1080  0110                     _LATE	set	272
  1081  0199                     _RCREG	set	409
  1082  019D                     _RCSTAbits	set	413
  1083  019A                     _TXREG	set	410
  1084  019E                     _TXSTAbits	set	414
  1085  019B                     _SPBRG	set	411
  1086  019F                     _BAUDCON	set	415
  1087  019D                     _RCSTA	set	413
  1088  019E                     _TXSTA	set	414
  1089  018C                     _ANSELA	set	396
  1090  018D                     _ANSELB	set	397
  1091  0215                     _SSPCON1bits	set	533
  1092  0214                     _SSPSTATbits	set	532
  1093  0211                     _SSPBUF	set	529
  1094  0216                     _SSPCON2bits	set	534
  1095  0214                     _SSPSTAT	set	532
  1096  0216                     _SSPCON2	set	534
  1097  0215                     _SSPCON1	set	533
  1098  0212                     _SSPADD	set	530
  1099  020D                     _WPUB	set	525
  1100  0210                     _WPUE	set	528
  1101                           
  1102                           	psect	cinit
  1103  004E                     start_initialization:	
  1104                           ; #config settings
  1105                           
  1106  004E                     __initialization:
  1107                           
  1108                           ; Clear objects allocated to BANK0
  1109  004E  0020               	movlb	0	; select bank0
  1110  004F  01C2               	clrf	__pbssBANK0& (0+127)
  1111  0050  01C3               	clrf	(__pbssBANK0+1)& (0+127)
  1112  0051  01C4               	clrf	(__pbssBANK0+2)& (0+127)
  1113  0052                     end_of_initialization:	
  1114                           ;End of C runtime variable initialization code
  1115                           
  1116  0052                     __end_of__initialization:
  1117  0052  107E               	bcf	int$flags,0	;clear compiler interrupt flag (level 1)
  1118  0053  0020               	movlb	0
  1119  0054  3180  28AF         	ljmp	_main	;jump to C main() function
  1120                           
  1121                           	psect	bssBANK0
  1122  0042                     __pbssBANK0:
  1123  0042                     _ch1_ang:
  1124  0042                     	ds	2
  1125  0044                     _flg:
  1126  0044                     	ds	1
  1127                           
  1128                           	psect	cstackCOMMON
  1129  0070                     __pcstackCOMMON:
  1130  0070                     ?_OSCILLATOR_Initialize:
  1131  0070                     ?_WDT_Initialize:	
  1132                           ; 1 bytes @ 0x0
  1133                           
  1134  0070                     ?_init:	
  1135                           ; 1 bytes @ 0x0
  1136                           
  1137  0070                     ?_PIN_MANAGER_Initialize:	
  1138                           ; 1 bytes @ 0x0
  1139                           
  1140  0070                     ?_SYSTEM_Initialize:	
  1141                           ; 1 bytes @ 0x0
  1142                           
  1143  0070                     ?_main:	
  1144                           ; 1 bytes @ 0x0
  1145                           
  1146  0070                     ?_send:	
  1147                           ; 1 bytes @ 0x0
  1148                           
  1149  0070                     ??_send:	
  1150                           ; 1 bytes @ 0x0
  1151                           
  1152  0070                     ?_isr:	
  1153                           ; 1 bytes @ 0x0
  1154                           
  1155  0070                     ?_i2c_wait:	
  1156                           ; 1 bytes @ 0x0
  1157                           
  1158  0070                     ?_i2c_start:	
  1159                           ; 1 bytes @ 0x0
  1160                           
  1161  0070                     ?_i2c_stop:	
  1162                           ; 1 bytes @ 0x0
  1163                           
  1164  0070                     ?_i2c_repeated_start:	
  1165                           ; 1 bytes @ 0x0
  1166                           
  1167  0070                     ?_i2c_write:	
  1168                           ; 1 bytes @ 0x0
  1169                           
  1170  0070                     ?_i2c_read:	
  1171                           ; 1 bytes @ 0x0
  1172                           
  1173  0070                     ?__read:	
  1174                           ; 1 bytes @ 0x0
  1175                           
  1176  0070                     ?i1_i2c_wait:	
  1177                           ; 1 bytes @ 0x0
  1178                           
  1179  0070                     ??i1_i2c_wait:	
  1180                           ; 1 bytes @ 0x0
  1181                           
  1182  0070                     ?i1_i2c_start:	
  1183                           ; 1 bytes @ 0x0
  1184                           
  1185  0070                     ??i1_i2c_start:	
  1186                           ; 1 bytes @ 0x0
  1187                           
  1188  0070                     ?i1_i2c_stop:	
  1189                           ; 1 bytes @ 0x0
  1190                           
  1191  0070                     ??i1_i2c_stop:	
  1192                           ; 1 bytes @ 0x0
  1193                           
  1194  0070                     ?i1_i2c_write:	
  1195                           ; 1 bytes @ 0x0
  1196                           
  1197  0070                     ??i1_i2c_write:	
  1198                           ; 1 bytes @ 0x0
  1199                           
  1200  0070                     ?___wmul:	
  1201                           ; 1 bytes @ 0x0
  1202                           
  1203  0070                     send@data:	
  1204                           ; 2 bytes @ 0x0
  1205                           
  1206  0070                     i1i2c_write@data:	
  1207                           ; 1 bytes @ 0x0
  1208                           
  1209  0070                     ___wmul@multiplier:	
  1210                           ; 1 bytes @ 0x0
  1211                           
  1212                           
  1213                           ; 2 bytes @ 0x0
  1214  0070                     	ds	1
  1215  0071                     ?_set_pwm:
  1216  0071                     set_pwm@on:	
  1217                           ; 1 bytes @ 0x1
  1218                           
  1219                           
  1220                           ; 2 bytes @ 0x1
  1221  0071                     	ds	1
  1222  0072                     ___wmul@multiplicand:
  1223                           
  1224                           ; 2 bytes @ 0x2
  1225  0072                     	ds	1
  1226  0073                     set_pwm@off:
  1227                           
  1228                           ; 2 bytes @ 0x3
  1229  0073                     	ds	1
  1230  0074                     ??___wmul:
  1231  0074                     ___wmul@product:	
  1232                           ; 1 bytes @ 0x4
  1233                           
  1234                           
  1235                           ; 2 bytes @ 0x4
  1236  0074                     	ds	1
  1237  0075                     ??_set_pwm:
  1238                           
  1239                           ; 1 bytes @ 0x5
  1240  0075                     	ds	1
  1241  0076                     ?i1___lwdiv:
  1242  0076                     set_pwm@num:	
  1243                           ; 2 bytes @ 0x6
  1244                           
  1245  0076                     i1___lwdiv@divisor:	
  1246                           ; 1 bytes @ 0x6
  1247                           
  1248                           
  1249                           ; 2 bytes @ 0x6
  1250  0076                     	ds	2
  1251  0078                     i1___lwdiv@dividend:
  1252                           
  1253                           ; 2 bytes @ 0x8
  1254  0078                     	ds	2
  1255  007A                     ??i1___lwdiv:
  1256                           
  1257                           ; 1 bytes @ 0xA
  1258  007A                     	ds	1
  1259  007B                     i1___lwdiv@quotient:
  1260                           
  1261                           ; 2 bytes @ 0xB
  1262  007B                     	ds	2
  1263  007D                     i1___lwdiv@counter:
  1264                           
  1265                           ; 1 bytes @ 0xD
  1266  007D                     	ds	1
  1267  007E                     ??_servo_write:
  1268  007E                     ??_map:	
  1269                           ; 1 bytes @ 0xE
  1270                           
  1271                           
  1272                           	psect	cstackBANK0
  1273  0020                     __pcstackBANK0:	
  1274                           ; 1 bytes @ 0xE
  1275                           
  1276  0020                     ?_map:
  1277  0020                     map@x:	
  1278                           ; 2 bytes @ 0x0
  1279                           
  1280                           
  1281                           ; 2 bytes @ 0x0
  1282  0020                     	ds	2
  1283  0022                     map@in_min:
  1284                           
  1285                           ; 2 bytes @ 0x2
  1286  0022                     	ds	2
  1287  0024                     map@in_max:
  1288                           
  1289                           ; 2 bytes @ 0x4
  1290  0024                     	ds	2
  1291  0026                     map@out_min:
  1292                           
  1293                           ; 2 bytes @ 0x6
  1294  0026                     	ds	2
  1295  0028                     map@out_max:
  1296                           
  1297                           ; 2 bytes @ 0x8
  1298  0028                     	ds	2
  1299  002A                     ?_servo_write:
  1300  002A                     servo_write@ang:	
  1301                           ; 1 bytes @ 0xA
  1302                           
  1303                           
  1304                           ; 2 bytes @ 0xA
  1305  002A                     	ds	2
  1306  002C                     servo_write@ch:
  1307                           
  1308                           ; 1 bytes @ 0xC
  1309  002C                     	ds	1
  1310  002D                     ??_isr:
  1311                           
  1312                           ; 1 bytes @ 0xD
  1313  002D                     	ds	2
  1314  002F                     isr@data:
  1315                           
  1316                           ; 1 bytes @ 0xF
  1317  002F                     	ds	1
  1318  0030                     ??_OSCILLATOR_Initialize:
  1319  0030                     ??_WDT_Initialize:	
  1320                           ; 1 bytes @ 0x10
  1321                           
  1322  0030                     ??_PIN_MANAGER_Initialize:	
  1323                           ; 1 bytes @ 0x10
  1324                           
  1325  0030                     ??_SYSTEM_Initialize:	
  1326                           ; 1 bytes @ 0x10
  1327                           
  1328  0030                     ??_i2c_wait:	
  1329                           ; 1 bytes @ 0x10
  1330                           
  1331  0030                     ??_i2c_start:	
  1332                           ; 1 bytes @ 0x10
  1333                           
  1334  0030                     ??_i2c_stop:	
  1335                           ; 1 bytes @ 0x10
  1336                           
  1337  0030                     ??_i2c_repeated_start:	
  1338                           ; 1 bytes @ 0x10
  1339                           
  1340  0030                     ??_i2c_write:	
  1341                           ; 1 bytes @ 0x10
  1342                           
  1343  0030                     ??_i2c_read:	
  1344                           ; 1 bytes @ 0x10
  1345                           
  1346  0030                     ?___lwdiv:	
  1347                           ; 1 bytes @ 0x10
  1348                           
  1349  0030                     i2c_write@data:	
  1350                           ; 2 bytes @ 0x10
  1351                           
  1352  0030                     ___lwdiv@divisor:	
  1353                           ; 1 bytes @ 0x10
  1354                           
  1355                           
  1356                           ; 2 bytes @ 0x10
  1357  0030                     	ds	1
  1358  0031                     ??_init:
  1359  0031                     ?__write:	
  1360                           ; 1 bytes @ 0x11
  1361                           
  1362  0031                     i2c_read@ack:	
  1363                           ; 1 bytes @ 0x11
  1364                           
  1365  0031                     __write@d:	
  1366                           ; 1 bytes @ 0x11
  1367                           
  1368                           
  1369                           ; 1 bytes @ 0x11
  1370  0031                     	ds	1
  1371  0032                     ??__write:
  1372  0032                     i2c_read@data:	
  1373                           ; 1 bytes @ 0x12
  1374                           
  1375  0032                     __write@addr:	
  1376                           ; 1 bytes @ 0x12
  1377                           
  1378  0032                     ___lwdiv@dividend:	
  1379                           ; 1 bytes @ 0x12
  1380                           
  1381                           
  1382                           ; 2 bytes @ 0x12
  1383  0032                     	ds	1
  1384  0033                     ??__read:
  1385                           
  1386                           ; 1 bytes @ 0x13
  1387  0033                     	ds	1
  1388  0034                     ??___lwdiv:
  1389  0034                     __read@addr:	
  1390                           ; 1 bytes @ 0x14
  1391                           
  1392                           
  1393                           ; 1 bytes @ 0x14
  1394  0034                     	ds	1
  1395  0035                     __read@data:
  1396  0035                     ___lwdiv@quotient:	
  1397                           ; 1 bytes @ 0x15
  1398                           
  1399                           
  1400                           ; 2 bytes @ 0x15
  1401  0035                     	ds	2
  1402  0037                     ___lwdiv@counter:
  1403                           
  1404                           ; 1 bytes @ 0x17
  1405  0037                     	ds	1
  1406  0038                     ?_set_pwm_freq:
  1407  0038                     set_pwm_freq@freq:	
  1408                           ; 1 bytes @ 0x18
  1409                           
  1410                           
  1411                           ; 2 bytes @ 0x18
  1412  0038                     	ds	2
  1413  003A                     ??_set_pwm_freq:
  1414                           
  1415                           ; 1 bytes @ 0x1A
  1416  003A                     	ds	1
  1417  003B                     set_pwm_freq@prescale:
  1418                           
  1419                           ; 1 bytes @ 0x1B
  1420  003B                     	ds	1
  1421  003C                     set_pwm_freq@newreg:
  1422                           
  1423                           ; 1 bytes @ 0x1C
  1424  003C                     	ds	1
  1425  003D                     set_pwm_freq@prescaleval:
  1426                           
  1427                           ; 2 bytes @ 0x1D
  1428  003D                     	ds	2
  1429  003F                     set_pwm_freq@oldreg:
  1430                           
  1431                           ; 1 bytes @ 0x1F
  1432  003F                     	ds	1
  1433  0040                     ??_main:
  1434                           
  1435                           ; 1 bytes @ 0x20
  1436  0040                     	ds	2
  1437                           
  1438                           	psect	maintext
  1439  00AF                     __pmaintext:	
  1440 ;;
  1441 ;;Main: autosize = 0, tempsize = 2, incstack = 0, save=0
  1442 ;;
  1443 ;; *************** function _main *****************
  1444 ;; Defined at:
  1445 ;;		line 15 in file "main.c"
  1446 ;; Parameters:    Size  Location     Type
  1447 ;;		None
  1448 ;; Auto vars:     Size  Location     Type
  1449 ;;		None
  1450 ;; Return value:  Size  Location     Type
  1451 ;;                  1    wreg      void 
  1452 ;; Registers used:
  1453 ;;		wreg, status,2, status,0, pclath, cstack
  1454 ;; Tracked objects:
  1455 ;;		On entry : B1F/0
  1456 ;;		On exit  : 0/0
  1457 ;;		Unchanged: 0/0
  1458 ;; Data sizes:     COMMON   BANK0   BANK1   BANK2   BANK3   BANK4   BANK5   BANK6   BANK7   BANK8   BANK9  BANK10  BANK1
      +1  BANK12
  1459 ;;      Params:         0       0       0       0       0       0       0       0       0       0       0       0       
      +0       0
  1460 ;;      Locals:         0       0       0       0       0       0       0       0       0       0       0       0       
      +0       0
  1461 ;;      Temps:          0       2       0       0       0       0       0       0       0       0       0       0       
      +0       0
  1462 ;;      Totals:         0       2       0       0       0       0       0       0       0       0       0       0       
      +0       0
  1463 ;;Total ram usage:        2 bytes
  1464 ;; Hardware stack levels required when called: 9
  1465 ;; This function calls:
  1466 ;;		_SYSTEM_Initialize
  1467 ;;		_init
  1468 ;;		_set_pwm_freq
  1469 ;; This function is called by:
  1470 ;;		Startup code after reset
  1471 ;; This function uses a non-reentrant model
  1472 ;;
  1473                           
  1474                           
  1475                           ;psect for function _main
  1476  00AF                     _main:
  1477  00AF                     l1336:	
  1478                           ;incstack = 0
  1479                           ; Regs used in _main: [wreg+status,2+status,0+pclath+cstack]
  1480                           
  1481                           
  1482                           ;main.c: 18: SYSTEM_Initialize();
  1483  00AF  3182  22CD  3180   	fcall	_SYSTEM_Initialize
  1484  00B2                     l1338:
  1485                           
  1486                           ;main.c: 20: ANSELA = 0x0;
  1487  00B2  0023               	movlb	3	; select bank3
  1488  00B3  018C               	clrf	12	;volatile
  1489  00B4                     l1340:
  1490                           
  1491                           ;main.c: 21: ANSELB = 0x0;
  1492  00B4  018D               	clrf	13	;volatile
  1493  00B5                     l1342:
  1494                           
  1495                           ;main.c: 24: TRISA = 0x0;
  1496  00B5  0021               	movlb	1	; select bank1
  1497  00B6  018C               	clrf	12	;volatile
  1498  00B7                     l1344:
  1499                           
  1500                           ;main.c: 25: LATA = 0x0;
  1501  00B7  0022               	movlb	2	; select bank2
  1502  00B8  018C               	clrf	12	;volatile
  1503  00B9                     l1346:
  1504                           
  1505                           ;main.c: 30: SSPADD = 0x13;
  1506  00B9  3013               	movlw	19
  1507  00BA  0024               	movlb	4	; select bank4
  1508  00BB  0092               	movwf	18	;volatile
  1509  00BC                     l1348:
  1510                           
  1511                           ;main.c: 31: SSPCON1 = 0x28;
  1512  00BC  3028               	movlw	40
  1513  00BD  0095               	movwf	21	;volatile
  1514  00BE                     l1350:
  1515                           
  1516                           ;main.c: 32: SSPCON2 = 0x0;
  1517  00BE  0196               	clrf	22	;volatile
  1518  00BF                     l1352:
  1519                           
  1520                           ;main.c: 33: SSPSTAT = 0;
  1521  00BF  0194               	clrf	20	;volatile
  1522  00C0                     l1354:
  1523                           
  1524                           ;main.c: 36: _delay((unsigned long)((500)*(8000000/4000.0)));
  1525  00C0  3006               	movlw	6
  1526  00C1  0020               	movlb	0	; select bank0
  1527  00C2  00C1               	movwf	??_main+1
  1528  00C3  3013               	movlw	19
  1529  00C4  00C0               	movwf	??_main
  1530  00C5  30AD               	movlw	173
  1531  00C6                     u797:
  1532  00C6  0B89               	decfsz	9,f
  1533  00C7  28C6               	goto	u797
  1534  00C8  0BC0               	decfsz	??_main,f
  1535  00C9  28C6               	goto	u797
  1536  00CA  0BC1               	decfsz	??_main+1,f
  1537  00CB  28C6               	goto	u797
  1538  00CC  3200               	nop2
  1539  00CD                     l1356:
  1540                           
  1541                           ;main.c: 37: init();
  1542  00CD  3182  226D  3180   	fcall	_init
  1543  00D0                     l1358:
  1544                           
  1545                           ;main.c: 39: set_pwm_freq(50);
  1546  00D0  3032               	movlw	50
  1547  00D1  0020               	movlb	0	; select bank0
  1548  00D2  00B8               	movwf	set_pwm_freq@freq
  1549  00D3  3000               	movlw	0
  1550  00D4  00B9               	movwf	set_pwm_freq@freq+1
  1551  00D5  3180  2056  3180   	fcall	_set_pwm_freq
  1552  00D8                     l1360:
  1553                           
  1554                           ;main.c: 43: TXSTA = 0x02;
  1555  00D8  3002               	movlw	2
  1556  00D9  0023               	movlb	3	; select bank3
  1557  00DA  009E               	movwf	30	;volatile
  1558  00DB                     l1362:
  1559                           
  1560                           ;main.c: 45: RCSTA = 0x90;
  1561  00DB  3090               	movlw	144
  1562  00DC  009D               	movwf	29	;volatile
  1563  00DD                     l1364:
  1564                           
  1565                           ;main.c: 47: BAUDCON = 0x08;
  1566  00DD  3008               	movlw	8
  1567  00DE  009F               	movwf	31	;volatile
  1568  00DF                     l1366:
  1569                           
  1570                           ;main.c: 49: SPBRG = 51;
  1571  00DF  3033               	movlw	51
  1572  00E0  009B               	movwf	27	;volatile
  1573  00E1                     l1368:
  1574                           
  1575                           ;main.c: 53: PIR1bits.RCIF = 0;
  1576  00E1  0020               	movlb	0	; select bank0
  1577  00E2  1291               	bcf	17,5	;volatile
  1578  00E3                     l1370:
  1579                           
  1580                           ;main.c: 56: PIE1bits.RCIE = 1;
  1581  00E3  0021               	movlb	1	; select bank1
  1582  00E4  1691               	bsf	17,5	;volatile
  1583  00E5                     l1372:
  1584                           
  1585                           ;main.c: 57: PEIE = 1;
  1586  00E5  170B               	bsf	11,6	;volatile
  1587  00E6                     l1374:
  1588                           
  1589                           ;main.c: 58: GIE = 1;
  1590  00E6  178B               	bsf	11,7	;volatile
  1591  00E7                     l1376:
  1592                           
  1593                           ;main.c: 60: ch1_ang = 0;
  1594  00E7  0020               	movlb	0	; select bank0
  1595  00E8  01C2               	clrf	_ch1_ang
  1596  00E9  01C3               	clrf	_ch1_ang+1
  1597  00EA                     l1378:
  1598                           
  1599                           ;main.c: 61: flg = 1;
  1600  00EA  01C4               	clrf	_flg
  1601  00EB  0AC4               	incf	_flg,f
  1602  00EC                     l116:	
  1603                           ;main.c: 62: while (1)
  1604                           
  1605  00EC                     l117:	
  1606                           ;main.c: 63: {
  1607                           
  1608  00EC  28EC               	goto	l116
  1609  00ED  3180  284C         	ljmp	start
  1610  00EF                     __end_of_main:
  1611                           
  1612                           	psect	text1
  1613  0056                     __ptext1:	
  1614 ;; *************** function _set_pwm_freq *****************
  1615 ;; Defined at:
  1616 ;;		line 77 in file "PCA9685.c"
  1617 ;; Parameters:    Size  Location     Type
  1618 ;;  freq            2   24[BANK0 ] unsigned int 
  1619 ;; Auto vars:     Size  Location     Type
  1620 ;;  prescaleval     2   29[BANK0 ] unsigned int 
  1621 ;;  oldreg          1   31[BANK0 ] unsigned char 
  1622 ;;  newreg          1   28[BANK0 ] unsigned char 
  1623 ;;  prescale        1   27[BANK0 ] unsigned char 
  1624 ;; Return value:  Size  Location     Type
  1625 ;;                  1    wreg      void 
  1626 ;; Registers used:
  1627 ;;		wreg, status,2, status,0, pclath, cstack
  1628 ;; Tracked objects:
  1629 ;;		On entry : 0/0
  1630 ;;		On exit  : 0/0
  1631 ;;		Unchanged: 0/0
  1632 ;; Data sizes:     COMMON   BANK0   BANK1   BANK2   BANK3   BANK4   BANK5   BANK6   BANK7   BANK8   BANK9  BANK10  BANK1
      +1  BANK12
  1633 ;;      Params:         0       2       0       0       0       0       0       0       0       0       0       0       
      +0       0
  1634 ;;      Locals:         0       5       0       0       0       0       0       0       0       0       0       0       
      +0       0
  1635 ;;      Temps:          0       1       0       0       0       0       0       0       0       0       0       0       
      +0       0
  1636 ;;      Totals:         0       8       0       0       0       0       0       0       0       0       0       0       
      +0       0
  1637 ;;Total ram usage:        8 bytes
  1638 ;; Hardware stack levels used: 1
  1639 ;; Hardware stack levels required when called: 8
  1640 ;; This function calls:
  1641 ;;		___lwdiv
  1642 ;;		__read
  1643 ;;		__write
  1644 ;; This function is called by:
  1645 ;;		_main
  1646 ;; This function uses a non-reentrant model
  1647 ;;
  1648                           
  1649                           
  1650                           ;psect for function _set_pwm_freq
  1651  0056                     _set_pwm_freq:
  1652  0056                     l1308:	
  1653                           ;incstack = 0
  1654                           ; Regs used in _set_pwm_freq: [wreg+status,2+status,0+pclath+cstack]
  1655                           
  1656                           
  1657                           ;PCA9685.c: 78: uint16_t prescaleval = 6103;
  1658  0056  30D7               	movlw	215
  1659  0057  0020               	movlb	0	; select bank0
  1660  0058  00BD               	movwf	set_pwm_freq@prescaleval
  1661  0059  3017               	movlw	23
  1662  005A  00BE               	movwf	set_pwm_freq@prescaleval+1
  1663  005B                     l1310:
  1664                           
  1665                           ;PCA9685.c: 79: prescaleval /= freq;
  1666  005B  0839               	movf	set_pwm_freq@freq+1,w
  1667  005C  00B1               	movwf	___lwdiv@divisor+1
  1668  005D  0838               	movf	set_pwm_freq@freq,w
  1669  005E  00B0               	movwf	___lwdiv@divisor
  1670  005F  083E               	movf	set_pwm_freq@prescaleval+1,w
  1671  0060  00B3               	movwf	___lwdiv@dividend+1
  1672  0061  083D               	movf	set_pwm_freq@prescaleval,w
  1673  0062  00B2               	movwf	___lwdiv@dividend
  1674  0063  3180  20EF  3180   	fcall	___lwdiv
  1675  0066  0020               	movlb	0	; select bank0
  1676  0067  0831               	movf	?___lwdiv+1,w
  1677  0068  00BE               	movwf	set_pwm_freq@prescaleval+1
  1678  0069  0830               	movf	?___lwdiv,w
  1679  006A  00BD               	movwf	set_pwm_freq@prescaleval
  1680  006B                     l1312:
  1681                           
  1682                           ;PCA9685.c: 80: prescaleval -= 1;
  1683  006B  3001               	movlw	1
  1684  006C  02BD               	subwf	set_pwm_freq@prescaleval,f
  1685  006D  3000               	movlw	0
  1686  006E  3BBE               	subwfb	set_pwm_freq@prescaleval+1,f
  1687  006F                     l1314:
  1688                           
  1689                           ;PCA9685.c: 82: uint8_t prescale = (uint8_t)prescaleval;
  1690  006F  083D               	movf	set_pwm_freq@prescaleval,w
  1691  0070  00BA               	movwf	??_set_pwm_freq
  1692  0071  083A               	movf	??_set_pwm_freq,w
  1693  0072  00BB               	movwf	set_pwm_freq@prescale
  1694  0073                     l1316:
  1695                           
  1696                           ;PCA9685.c: 83: uint8_t oldreg = _read(0x0);
  1697  0073  3000               	movlw	0
  1698  0074  3181  21DE  3180   	fcall	__read
  1699  0077  0020               	movlb	0	; select bank0
  1700  0078  00BA               	movwf	??_set_pwm_freq
  1701  0079  083A               	movf	??_set_pwm_freq,w
  1702  007A  00BF               	movwf	set_pwm_freq@oldreg
  1703  007B                     l1318:
  1704                           
  1705                           ;PCA9685.c: 84: uint8_t newreg = (oldreg & 0x7F) | 0x10;
  1706  007B  083F               	movf	set_pwm_freq@oldreg,w
  1707  007C  397F               	andlw	127
  1708  007D  3810               	iorlw	16
  1709  007E  00BA               	movwf	??_set_pwm_freq
  1710  007F  083A               	movf	??_set_pwm_freq,w
  1711  0080  00BC               	movwf	set_pwm_freq@newreg
  1712  0081                     l1320:
  1713                           
  1714                           ;PCA9685.c: 85: _write(0x0, newreg);
  1715  0081  083C               	movf	set_pwm_freq@newreg,w
  1716  0082  00BA               	movwf	??_set_pwm_freq
  1717  0083  083A               	movf	??_set_pwm_freq,w
  1718  0084  00B1               	movwf	__write@d
  1719  0085  3000               	movlw	0
  1720  0086  3182  2256  3180   	fcall	__write
  1721  0089                     l1322:
  1722                           
  1723                           ;PCA9685.c: 86: _write(0xFE, prescale);
  1724  0089  0020               	movlb	0	; select bank0
  1725  008A  083B               	movf	set_pwm_freq@prescale,w
  1726  008B  00BA               	movwf	??_set_pwm_freq
  1727  008C  083A               	movf	??_set_pwm_freq,w
  1728  008D  00B1               	movwf	__write@d
  1729  008E  30FE               	movlw	254
  1730  008F  3182  2256  3180   	fcall	__write
  1731  0092                     l1324:
  1732                           
  1733                           ;PCA9685.c: 87: _write(0x0, oldreg);
  1734  0092  0020               	movlb	0	; select bank0
  1735  0093  083F               	movf	set_pwm_freq@oldreg,w
  1736  0094  00BA               	movwf	??_set_pwm_freq
  1737  0095  083A               	movf	??_set_pwm_freq,w
  1738  0096  00B1               	movwf	__write@d
  1739  0097  3000               	movlw	0
  1740  0098  3182  2256  3180   	fcall	__write
  1741  009B                     l1326:
  1742                           
  1743                           ;PCA9685.c: 88: _delay((unsigned long)((5)*(8000000/4000.0)));
  1744  009B  300D               	movlw	13
  1745  009C  0020               	movlb	0	; select bank0
  1746  009D  00BA               	movwf	??_set_pwm_freq
  1747  009E  30FB               	movlw	251
  1748  009F                     u807:
  1749  009F  0B89               	decfsz	9,f
  1750  00A0  289F               	goto	u807
  1751  00A1  0BBA               	decfsz	??_set_pwm_freq,f
  1752  00A2  289F               	goto	u807
  1753  00A3  3200               	nop2
  1754  00A4                     l1328:
  1755                           
  1756                           ;PCA9685.c: 89: _write(0x0, oldreg | 0xA1);
  1757  00A4  0020               	movlb	0	; select bank0
  1758  00A5  083F               	movf	set_pwm_freq@oldreg,w
  1759  00A6  38A1               	iorlw	161
  1760  00A7  00BA               	movwf	??_set_pwm_freq
  1761  00A8  083A               	movf	??_set_pwm_freq,w
  1762  00A9  00B1               	movwf	__write@d
  1763  00AA  3000               	movlw	0
  1764  00AB  3182  2256  3180   	fcall	__write
  1765  00AE                     l216:
  1766  00AE  0008               	return
  1767  00AF                     __end_of_set_pwm_freq:
  1768                           
  1769                           	psect	text2
  1770  0256                     __ptext2:	
  1771 ;; *************** function __write *****************
  1772 ;; Defined at:
  1773 ;;		line 16 in file "PCA9685.c"
  1774 ;; Parameters:    Size  Location     Type
  1775 ;;  addr            1    wreg     unsigned char 
  1776 ;;  d               1   17[BANK0 ] unsigned char 
  1777 ;; Auto vars:     Size  Location     Type
  1778 ;;  addr            1   18[BANK0 ] unsigned char 
  1779 ;; Return value:  Size  Location     Type
  1780 ;;                  1    wreg      void 
  1781 ;; Registers used:
  1782 ;;		wreg, status,2, status,0, pclath, cstack
  1783 ;; Tracked objects:
  1784 ;;		On entry : 0/0
  1785 ;;		On exit  : 0/0
  1786 ;;		Unchanged: 0/0
  1787 ;; Data sizes:     COMMON   BANK0   BANK1   BANK2   BANK3   BANK4   BANK5   BANK6   BANK7   BANK8   BANK9  BANK10  BANK1
      +1  BANK12
  1788 ;;      Params:         0       1       0       0       0       0       0       0       0       0       0       0       
      +0       0
  1789 ;;      Locals:         0       1       0       0       0       0       0       0       0       0       0       0       
      +0       0
  1790 ;;      Temps:          0       0       0       0       0       0       0       0       0       0       0       0       
      +0       0
  1791 ;;      Totals:         0       2       0       0       0       0       0       0       0       0       0       0       
      +0       0
  1792 ;;Total ram usage:        2 bytes
  1793 ;; Hardware stack levels used: 1
  1794 ;; Hardware stack levels required when called: 7
  1795 ;; This function calls:
  1796 ;;		_i2c_start
  1797 ;;		_i2c_stop
  1798 ;;		_i2c_write
  1799 ;; This function is called by:
  1800 ;;		_set_pwm_freq
  1801 ;; This function uses a non-reentrant model
  1802 ;;
  1803                           
  1804                           
  1805                           ;psect for function __write
  1806  0256                     __write:
  1807                           
  1808                           ;incstack = 0
  1809                           ; Regs used in __write: [wreg+status,2+status,0+pclath+cstack]
  1810                           ;__write@addr stored from wreg
  1811  0256  0020               	movlb	0	; select bank0
  1812  0257  00B2               	movwf	__write@addr
  1813  0258                     l1258:
  1814                           
  1815                           ;PCA9685.c: 17: i2c_start();
  1816  0258  3182  22C3  3182   	fcall	_i2c_start
  1817                           
  1818                           ;PCA9685.c: 18: i2c_write(0x80);
  1819  025B  3080               	movlw	128
  1820  025C  3182  2280  3182   	fcall	_i2c_write
  1821                           
  1822                           ;PCA9685.c: 19: i2c_write(addr);
  1823  025F  0020               	movlb	0	; select bank0
  1824  0260  0832               	movf	__write@addr,w
  1825  0261  3182  2280  3182   	fcall	_i2c_write
  1826                           
  1827                           ;PCA9685.c: 20: i2c_write(d);
  1828  0264  0020               	movlb	0	; select bank0
  1829  0265  0831               	movf	__write@d,w
  1830  0266  3182  2280  3182   	fcall	_i2c_write
  1831  0269                     l1260:
  1832                           
  1833                           ;PCA9685.c: 21: i2c_stop();
  1834  0269  3182  22EA  3182   	fcall	_i2c_stop
  1835  026C                     l204:
  1836  026C  0008               	return
  1837  026D                     __end_of__write:
  1838                           
  1839                           	psect	text3
  1840  01DE                     __ptext3:	
  1841 ;; *************** function __read *****************
  1842 ;; Defined at:
  1843 ;;		line 28 in file "PCA9685.c"
  1844 ;; Parameters:    Size  Location     Type
  1845 ;;  addr            1    wreg     unsigned char 
  1846 ;; Auto vars:     Size  Location     Type
  1847 ;;  addr            1   20[BANK0 ] unsigned char 
  1848 ;;  data            1   21[BANK0 ] unsigned char 
  1849 ;; Return value:  Size  Location     Type
  1850 ;;                  1    wreg      unsigned char 
  1851 ;; Registers used:
  1852 ;;		wreg, status,2, status,0, pclath, cstack
  1853 ;; Tracked objects:
  1854 ;;		On entry : 0/0
  1855 ;;		On exit  : 0/0
  1856 ;;		Unchanged: 0/0
  1857 ;; Data sizes:     COMMON   BANK0   BANK1   BANK2   BANK3   BANK4   BANK5   BANK6   BANK7   BANK8   BANK9  BANK10  BANK1
      +1  BANK12
  1858 ;;      Params:         0       0       0       0       0       0       0       0       0       0       0       0       
      +0       0
  1859 ;;      Locals:         0       2       0       0       0       0       0       0       0       0       0       0       
      +0       0
  1860 ;;      Temps:          0       1       0       0       0       0       0       0       0       0       0       0       
      +0       0
  1861 ;;      Totals:         0       3       0       0       0       0       0       0       0       0       0       0       
      +0       0
  1862 ;;Total ram usage:        3 bytes
  1863 ;; Hardware stack levels used: 1
  1864 ;; Hardware stack levels required when called: 7
  1865 ;; This function calls:
  1866 ;;		_i2c_read
  1867 ;;		_i2c_repeated_start
  1868 ;;		_i2c_start
  1869 ;;		_i2c_stop
  1870 ;;		_i2c_write
  1871 ;; This function is called by:
  1872 ;;		_set_pwm_freq
  1873 ;; This function uses a non-reentrant model
  1874 ;;
  1875                           
  1876                           
  1877                           ;psect for function __read
  1878  01DE                     __read:
  1879                           
  1880                           ;incstack = 0
  1881                           ; Regs used in __read: [wreg+status,2+status,0+pclath+cstack]
  1882                           ;__read@addr stored from wreg
  1883  01DE  0020               	movlb	0	; select bank0
  1884  01DF  00B4               	movwf	__read@addr
  1885  01E0                     l1262:
  1886                           
  1887                           ;PCA9685.c: 29: uint8_t data;;PCA9685.c: 30: i2c_start();
  1888  01E0  3182  22C3  3181   	fcall	_i2c_start
  1889                           
  1890                           ;PCA9685.c: 31: i2c_write(0x80);
  1891  01E3  3080               	movlw	128
  1892  01E4  3182  2280  3181   	fcall	_i2c_write
  1893                           
  1894                           ;PCA9685.c: 32: i2c_write(addr);
  1895  01E7  0020               	movlb	0	; select bank0
  1896  01E8  0834               	movf	__read@addr,w
  1897  01E9  3182  2280  3181   	fcall	_i2c_write
  1898                           
  1899                           ;PCA9685.c: 34: i2c_repeated_start();
  1900  01EC  3182  22B9  3181   	fcall	_i2c_repeated_start
  1901                           
  1902                           ;PCA9685.c: 36: i2c_write(0x80 | 0x01);
  1903  01EF  3081               	movlw	129
  1904  01F0  3182  2280  3181   	fcall	_i2c_write
  1905                           
  1906                           ;PCA9685.c: 37: data = i2c_read(0x0 | 0x01);
  1907  01F3  3001               	movlw	1
  1908  01F4  3182  2220  3181   	fcall	_i2c_read
  1909  01F7  0020               	movlb	0	; select bank0
  1910  01F8  00B3               	movwf	??__read
  1911  01F9  0833               	movf	??__read,w
  1912  01FA  00B5               	movwf	__read@data
  1913  01FB                     l1264:
  1914                           
  1915                           ;PCA9685.c: 38: i2c_stop();
  1916  01FB  3182  22EA  3181   	fcall	_i2c_stop
  1917                           
  1918                           ;PCA9685.c: 40: return data;
  1919  01FE  0020               	movlb	0	; select bank0
  1920  01FF  0835               	movf	__read@data,w
  1921  0200                     l207:
  1922  0200  0008               	return
  1923  0201                     __end_of__read:
  1924                           
  1925                           	psect	text4
  1926  02B9                     __ptext4:	
  1927 ;; *************** function _i2c_repeated_start *****************
  1928 ;; Defined at:
  1929 ;;		line 19 in file "i2c.c"
  1930 ;; Parameters:    Size  Location     Type
  1931 ;;		None
  1932 ;; Auto vars:     Size  Location     Type
  1933 ;;		None
  1934 ;; Return value:  Size  Location     Type
  1935 ;;                  1    wreg      void 
  1936 ;; Registers used:
  1937 ;;		wreg, status,2, status,0, pclath, cstack
  1938 ;; Tracked objects:
  1939 ;;		On entry : 0/0
  1940 ;;		On exit  : 0/0
  1941 ;;		Unchanged: 0/0
  1942 ;; Data sizes:     COMMON   BANK0   BANK1   BANK2   BANK3   BANK4   BANK5   BANK6   BANK7   BANK8   BANK9  BANK10  BANK1
      +1  BANK12
  1943 ;;      Params:         0       0       0       0       0       0       0       0       0       0       0       0       
      +0       0
  1944 ;;      Locals:         0       0       0       0       0       0       0       0       0       0       0       0       
      +0       0
  1945 ;;      Temps:          0       0       0       0       0       0       0       0       0       0       0       0       
      +0       0
  1946 ;;      Totals:         0       0       0       0       0       0       0       0       0       0       0       0       
      +0       0
  1947 ;;Total ram usage:        0 bytes
  1948 ;; Hardware stack levels used: 1
  1949 ;; Hardware stack levels required when called: 6
  1950 ;; This function calls:
  1951 ;;		_i2c_wait
  1952 ;; This function is called by:
  1953 ;;		__read
  1954 ;; This function uses a non-reentrant model
  1955 ;;
  1956                           
  1957                           
  1958                           ;psect for function _i2c_repeated_start
  1959  02B9                     _i2c_repeated_start:
  1960  02B9                     l1162:	
  1961                           ;incstack = 0
  1962                           ; Regs used in _i2c_repeated_start: [wreg+status,2+status,0+pclath+cstack]
  1963                           
  1964                           
  1965                           ;i2c.c: 20: i2c_wait();
  1966  02B9  3182  22A1  3182   	fcall	_i2c_wait
  1967  02BC                     l1164:
  1968                           
  1969                           ;i2c.c: 21: SSPCON2bits.RSEN = 1;
  1970  02BC  0024               	movlb	4	; select bank4
  1971  02BD  1496               	bsf	22,1	;volatile
  1972  02BE                     l171:	
  1973                           ;i2c.c: 22: while(SSPCON2bits.RSEN);
  1974                           
  1975  02BE  1896               	btfsc	22,1	;volatile
  1976  02BF  2AC1               	goto	u461
  1977  02C0  2AC2               	goto	u460
  1978  02C1                     u461:
  1979  02C1  2ABE               	goto	l171
  1980  02C2                     u460:
  1981  02C2                     l174:
  1982  02C2  0008               	return
  1983  02C3                     __end_of_i2c_repeated_start:
  1984                           
  1985                           	psect	text5
  1986  0220                     __ptext5:	
  1987 ;; *************** function _i2c_read *****************
  1988 ;; Defined at:
  1989 ;;		line 32 in file "i2c.c"
  1990 ;; Parameters:    Size  Location     Type
  1991 ;;  ack             1    wreg     unsigned char 
  1992 ;; Auto vars:     Size  Location     Type
  1993 ;;  ack             1   17[BANK0 ] unsigned char 
  1994 ;;  data            1   18[BANK0 ] unsigned char 
  1995 ;; Return value:  Size  Location     Type
  1996 ;;                  1    wreg      unsigned char 
  1997 ;; Registers used:
  1998 ;;		wreg, status,2, status,0, pclath, cstack
  1999 ;; Tracked objects:
  2000 ;;		On entry : 0/0
  2001 ;;		On exit  : 0/0
  2002 ;;		Unchanged: 0/0
  2003 ;; Data sizes:     COMMON   BANK0   BANK1   BANK2   BANK3   BANK4   BANK5   BANK6   BANK7   BANK8   BANK9  BANK10  BANK1
      +1  BANK12
  2004 ;;      Params:         0       0       0       0       0       0       0       0       0       0       0       0       
      +0       0
  2005 ;;      Locals:         0       2       0       0       0       0       0       0       0       0       0       0       
      +0       0
  2006 ;;      Temps:          0       1       0       0       0       0       0       0       0       0       0       0       
      +0       0
  2007 ;;      Totals:         0       3       0       0       0       0       0       0       0       0       0       0       
      +0       0
  2008 ;;Total ram usage:        3 bytes
  2009 ;; Hardware stack levels used: 1
  2010 ;; Hardware stack levels required when called: 6
  2011 ;; This function calls:
  2012 ;;		_i2c_wait
  2013 ;; This function is called by:
  2014 ;;		__read
  2015 ;; This function uses a non-reentrant model
  2016 ;;
  2017                           
  2018                           
  2019                           ;psect for function _i2c_read
  2020  0220                     _i2c_read:
  2021                           
  2022                           ;incstack = 0
  2023                           ; Regs used in _i2c_read: [wreg+status,2+status,0+pclath+cstack]
  2024                           ;i2c_read@ack stored from wreg
  2025  0220  0020               	movlb	0	; select bank0
  2026  0221  00B1               	movwf	i2c_read@ack
  2027  0222                     l1170:
  2028                           
  2029                           ;i2c.c: 33: uint8_t data;;i2c.c: 35: SSPCON2bits.ACKDT = ack;
  2030  0222  0C31               	rrf	i2c_read@ack,w
  2031  0223  0024               	movlb	4	; select bank4
  2032  0224  1C03               	skipc
  2033  0225  1296               	bcf	22,5	;volatile
  2034  0226  1803               	skipnc
  2035  0227  1696               	bsf	22,5	;volatile
  2036  0228                     l1172:
  2037                           
  2038                           ;i2c.c: 36: SSPCON2bits.RCEN = 1;
  2039  0228  1596               	bsf	22,3	;volatile
  2040  0229                     l186:	
  2041                           ;i2c.c: 37: while(!SSPSTATbits.BF);
  2042                           
  2043  0229  1C14               	btfss	20,0	;volatile
  2044  022A  2A2C               	goto	u491
  2045  022B  2A2D               	goto	u490
  2046  022C                     u491:
  2047  022C  2A29               	goto	l186
  2048  022D                     u490:
  2049  022D                     l188:
  2050                           
  2051                           ;i2c.c: 38: SSPCON2bits.ACKEN = 1;
  2052  022D  1616               	bsf	22,4	;volatile
  2053  022E                     l1174:
  2054                           
  2055                           ;i2c.c: 39: data = SSPBUF;
  2056  022E  0811               	movf	17,w	;volatile
  2057  022F  0020               	movlb	0	; select bank0
  2058  0230  00B0               	movwf	??_i2c_read
  2059  0231  0830               	movf	??_i2c_read,w
  2060  0232  00B2               	movwf	i2c_read@data
  2061  0233                     l1176:
  2062                           
  2063                           ;i2c.c: 40: SSPCON1bits.SSPOV = 0;
  2064  0233  0024               	movlb	4	; select bank4
  2065  0234  1315               	bcf	21,6	;volatile
  2066  0235                     l1178:
  2067                           
  2068                           ;i2c.c: 41: i2c_wait();
  2069  0235  3182  22A1  3182   	fcall	_i2c_wait
  2070  0238                     l1180:
  2071                           
  2072                           ;i2c.c: 43: return data;
  2073  0238  0020               	movlb	0	; select bank0
  2074  0239  0832               	movf	i2c_read@data,w
  2075  023A                     l189:
  2076  023A  0008               	return
  2077  023B                     __end_of_i2c_read:
  2078                           
  2079                           	psect	text6
  2080  00EF                     __ptext6:	
  2081 ;; *************** function ___lwdiv *****************
  2082 ;; Defined at:
  2083 ;;		line 5 in file "C:\Program Files\Microchip\xc8\v2.32\pic\sources\c90\common\lwdiv.c"
  2084 ;; Parameters:    Size  Location     Type
  2085 ;;  divisor         2   16[BANK0 ] unsigned int 
  2086 ;;  dividend        2   18[BANK0 ] unsigned int 
  2087 ;; Auto vars:     Size  Location     Type
  2088 ;;  quotient        2   21[BANK0 ] unsigned int 
  2089 ;;  counter         1   23[BANK0 ] unsigned char 
  2090 ;; Return value:  Size  Location     Type
  2091 ;;                  2   16[BANK0 ] unsigned int 
  2092 ;; Registers used:
  2093 ;;		wreg, status,2, status,0
  2094 ;; Tracked objects:
  2095 ;;		On entry : 0/0
  2096 ;;		On exit  : 0/0
  2097 ;;		Unchanged: 0/0
  2098 ;; Data sizes:     COMMON   BANK0   BANK1   BANK2   BANK3   BANK4   BANK5   BANK6   BANK7   BANK8   BANK9  BANK10  BANK1
      +1  BANK12
  2099 ;;      Params:         0       4       0       0       0       0       0       0       0       0       0       0       
      +0       0
  2100 ;;      Locals:         0       3       0       0       0       0       0       0       0       0       0       0       
      +0       0
  2101 ;;      Temps:          0       1       0       0       0       0       0       0       0       0       0       0       
      +0       0
  2102 ;;      Totals:         0       8       0       0       0       0       0       0       0       0       0       0       
      +0       0
  2103 ;;Total ram usage:        8 bytes
  2104 ;; Hardware stack levels used: 1
  2105 ;; Hardware stack levels required when called: 5
  2106 ;; This function calls:
  2107 ;;		Nothing
  2108 ;; This function is called by:
  2109 ;;		_set_pwm_freq
  2110 ;; This function uses a non-reentrant model
  2111 ;;
  2112                           
  2113                           
  2114                           ;psect for function ___lwdiv
  2115  00EF                     ___lwdiv:
  2116  00EF                     l1276:	
  2117                           ;incstack = 0
  2118                           ; Regs used in ___lwdiv: [wreg+status,2+status,0]
  2119                           
  2120  00EF  0020               	movlb	0	; select bank0
  2121  00F0  01B5               	clrf	___lwdiv@quotient
  2122  00F1  01B6               	clrf	___lwdiv@quotient+1
  2123  00F2                     l1278:
  2124  00F2  0830               	movf	___lwdiv@divisor,w
  2125  00F3  0431               	iorwf	___lwdiv@divisor+1,w
  2126  00F4  1903               	btfsc	3,2
  2127  00F5  28F7               	goto	u661
  2128  00F6  28F8               	goto	u660
  2129  00F7                     u661:
  2130  00F7  2927               	goto	l1298
  2131  00F8                     u660:
  2132  00F8                     l1280:
  2133  00F8  01B7               	clrf	___lwdiv@counter
  2134  00F9  0AB7               	incf	___lwdiv@counter,f
  2135  00FA  2904               	goto	l1286
  2136  00FB                     l1282:
  2137  00FB  3001               	movlw	1
  2138  00FC                     u675:
  2139  00FC  35B0               	lslf	___lwdiv@divisor,f
  2140  00FD  0DB1               	rlf	___lwdiv@divisor+1,f
  2141  00FE  0B89               	decfsz	9,f
  2142  00FF  28FC               	goto	u675
  2143  0100                     l1284:
  2144  0100  3001               	movlw	1
  2145  0101  00B4               	movwf	??___lwdiv
  2146  0102  0834               	movf	??___lwdiv,w
  2147  0103  07B7               	addwf	___lwdiv@counter,f
  2148  0104                     l1286:
  2149  0104  1FB1               	btfss	___lwdiv@divisor+1,7
  2150  0105  2907               	goto	u681
  2151  0106  2908               	goto	u680
  2152  0107                     u681:
  2153  0107  28FB               	goto	l1282
  2154  0108                     u680:
  2155  0108                     l1288:
  2156  0108  3001               	movlw	1
  2157  0109                     u695:
  2158  0109  35B5               	lslf	___lwdiv@quotient,f
  2159  010A  0DB6               	rlf	___lwdiv@quotient+1,f
  2160  010B  0B89               	decfsz	9,f
  2161  010C  2909               	goto	u695
  2162  010D  0831               	movf	___lwdiv@divisor+1,w
  2163  010E  0233               	subwf	___lwdiv@dividend+1,w
  2164  010F  1D03               	skipz
  2165  0110  2913               	goto	u705
  2166  0111  0830               	movf	___lwdiv@divisor,w
  2167  0112  0232               	subwf	___lwdiv@dividend,w
  2168  0113                     u705:
  2169  0113  1C03               	skipc
  2170  0114  2916               	goto	u701
  2171  0115  2917               	goto	u700
  2172  0116                     u701:
  2173  0116  291C               	goto	l1294
  2174  0117                     u700:
  2175  0117                     l1290:
  2176  0117  0830               	movf	___lwdiv@divisor,w
  2177  0118  02B2               	subwf	___lwdiv@dividend,f
  2178  0119  0831               	movf	___lwdiv@divisor+1,w
  2179  011A  3BB3               	subwfb	___lwdiv@dividend+1,f
  2180  011B                     l1292:
  2181  011B  1435               	bsf	___lwdiv@quotient,0
  2182  011C                     l1294:
  2183  011C  3001               	movlw	1
  2184  011D                     u715:
  2185  011D  36B1               	lsrf	___lwdiv@divisor+1,f
  2186  011E  0CB0               	rrf	___lwdiv@divisor,f
  2187  011F  0B89               	decfsz	9,f
  2188  0120  291D               	goto	u715
  2189  0121                     l1296:
  2190  0121  3001               	movlw	1
  2191  0122  02B7               	subwf	___lwdiv@counter,f
  2192  0123  1D03               	btfss	3,2
  2193  0124  2926               	goto	u721
  2194  0125  2927               	goto	u720
  2195  0126                     u721:
  2196  0126  2908               	goto	l1288
  2197  0127                     u720:
  2198  0127                     l1298:
  2199  0127  0836               	movf	___lwdiv@quotient+1,w
  2200  0128  00B1               	movwf	?___lwdiv+1
  2201  0129  0835               	movf	___lwdiv@quotient,w
  2202  012A  00B0               	movwf	?___lwdiv
  2203  012B                     l644:
  2204  012B  0008               	return
  2205  012C                     __end_of___lwdiv:
  2206                           
  2207                           	psect	text7
  2208  026D                     __ptext7:	
  2209 ;; *************** function _init *****************
  2210 ;; Defined at:
  2211 ;;		line 46 in file "PCA9685.c"
  2212 ;; Parameters:    Size  Location     Type
  2213 ;;		None
  2214 ;; Auto vars:     Size  Location     Type
  2215 ;;		None
  2216 ;; Return value:  Size  Location     Type
  2217 ;;                  1    wreg      void 
  2218 ;; Registers used:
  2219 ;;		wreg, status,2, status,0, pclath, cstack
  2220 ;; Tracked objects:
  2221 ;;		On entry : 0/0
  2222 ;;		On exit  : 0/0
  2223 ;;		Unchanged: 0/0
  2224 ;; Data sizes:     COMMON   BANK0   BANK1   BANK2   BANK3   BANK4   BANK5   BANK6   BANK7   BANK8   BANK9  BANK10  BANK1
      +1  BANK12
  2225 ;;      Params:         0       0       0       0       0       0       0       0       0       0       0       0       
      +0       0
  2226 ;;      Locals:         0       0       0       0       0       0       0       0       0       0       0       0       
      +0       0
  2227 ;;      Temps:          0       0       0       0       0       0       0       0       0       0       0       0       
      +0       0
  2228 ;;      Totals:         0       0       0       0       0       0       0       0       0       0       0       0       
      +0       0
  2229 ;;Total ram usage:        0 bytes
  2230 ;; Hardware stack levels used: 1
  2231 ;; Hardware stack levels required when called: 7
  2232 ;; This function calls:
  2233 ;;		_i2c_start
  2234 ;;		_i2c_stop
  2235 ;;		_i2c_write
  2236 ;; This function is called by:
  2237 ;;		_main
  2238 ;; This function uses a non-reentrant model
  2239 ;;
  2240                           
  2241                           
  2242                           ;psect for function _init
  2243  026D                     _init:
  2244  026D                     l1304:	
  2245                           ;incstack = 0
  2246                           ; Regs used in _init: [wreg+status,2+status,0+pclath+cstack]
  2247                           
  2248                           
  2249                           ;PCA9685.c: 47: i2c_start();
  2250  026D  3182  22C3  3182   	fcall	_i2c_start
  2251                           
  2252                           ;PCA9685.c: 48: i2c_write(0x80);
  2253  0270  3080               	movlw	128
  2254  0271  3182  2280  3182   	fcall	_i2c_write
  2255                           
  2256                           ;PCA9685.c: 50: i2c_write(0x0);
  2257  0274  3000               	movlw	0
  2258  0275  3182  2280  3182   	fcall	_i2c_write
  2259                           
  2260                           ;PCA9685.c: 51: i2c_write(0x0);
  2261  0278  3000               	movlw	0
  2262  0279  3182  2280  3182   	fcall	_i2c_write
  2263  027C                     l1306:
  2264                           
  2265                           ;PCA9685.c: 53: i2c_stop();
  2266  027C  3182  22EA  3182   	fcall	_i2c_stop
  2267  027F                     l210:
  2268  027F  0008               	return
  2269  0280                     __end_of_init:
  2270                           
  2271                           	psect	text8
  2272  0280                     __ptext8:	
  2273 ;; *************** function _i2c_write *****************
  2274 ;; Defined at:
  2275 ;;		line 25 in file "i2c.c"
  2276 ;; Parameters:    Size  Location     Type
  2277 ;;  data            1    wreg     unsigned char 
  2278 ;; Auto vars:     Size  Location     Type
  2279 ;;  data            1   16[BANK0 ] unsigned char 
  2280 ;; Return value:  Size  Location     Type
  2281 ;;                  1    wreg      void 
  2282 ;; Registers used:
  2283 ;;		wreg, status,2, status,0, pclath, cstack
  2284 ;; Tracked objects:
  2285 ;;		On entry : 0/0
  2286 ;;		On exit  : 0/0
  2287 ;;		Unchanged: 0/0
  2288 ;; Data sizes:     COMMON   BANK0   BANK1   BANK2   BANK3   BANK4   BANK5   BANK6   BANK7   BANK8   BANK9  BANK10  BANK1
      +1  BANK12
  2289 ;;      Params:         0       0       0       0       0       0       0       0       0       0       0       0       
      +0       0
  2290 ;;      Locals:         0       1       0       0       0       0       0       0       0       0       0       0       
      +0       0
  2291 ;;      Temps:          0       0       0       0       0       0       0       0       0       0       0       0       
      +0       0
  2292 ;;      Totals:         0       1       0       0       0       0       0       0       0       0       0       0       
      +0       0
  2293 ;;Total ram usage:        1 bytes
  2294 ;; Hardware stack levels used: 1
  2295 ;; Hardware stack levels required when called: 6
  2296 ;; This function calls:
  2297 ;;		_i2c_wait
  2298 ;; This function is called by:
  2299 ;;		__write
  2300 ;;		__read
  2301 ;;		_init
  2302 ;; This function uses a non-reentrant model
  2303 ;;
  2304                           
  2305                           
  2306                           ;psect for function _i2c_write
  2307  0280                     _i2c_write:
  2308                           
  2309                           ;incstack = 0
  2310                           ; Regs used in _i2c_write: [wreg+status,2+status,0+pclath+cstack]
  2311                           ;i2c_write@data stored from wreg
  2312  0280  0020               	movlb	0	; select bank0
  2313  0281  00B0               	movwf	i2c_write@data
  2314  0282                     l1166:
  2315                           
  2316                           ;i2c.c: 26: SSPBUF = data;
  2317  0282  0830               	movf	i2c_write@data,w
  2318  0283  0024               	movlb	4	; select bank4
  2319  0284  0091               	movwf	17	;volatile
  2320  0285                     l177:	
  2321                           ;i2c.c: 27: while(SSPSTATbits.BF);
  2322                           
  2323  0285  1814               	btfsc	20,0	;volatile
  2324  0286  2A88               	goto	u471
  2325  0287  2A89               	goto	u470
  2326  0288                     u471:
  2327  0288  2A85               	goto	l177
  2328  0289                     u470:
  2329  0289                     l180:
  2330  0289  1B16               	btfsc	22,6	;volatile
  2331  028A  2A8C               	goto	u481
  2332  028B  2A8D               	goto	u480
  2333  028C                     u481:
  2334  028C  2A89               	goto	l180
  2335  028D                     u480:
  2336  028D                     l1168:
  2337                           
  2338                           ;i2c.c: 29: i2c_wait();
  2339  028D  3182  22A1  3182   	fcall	_i2c_wait
  2340  0290                     l183:
  2341  0290  0008               	return
  2342  0291                     __end_of_i2c_write:
  2343                           
  2344                           	psect	text9
  2345  02EA                     __ptext9:	
  2346 ;; *************** function _i2c_stop *****************
  2347 ;; Defined at:
  2348 ;;		line 14 in file "i2c.c"
  2349 ;; Parameters:    Size  Location     Type
  2350 ;;		None
  2351 ;; Auto vars:     Size  Location     Type
  2352 ;;		None
  2353 ;; Return value:  Size  Location     Type
  2354 ;;                  1    wreg      void 
  2355 ;; Registers used:
  2356 ;;		None
  2357 ;; Tracked objects:
  2358 ;;		On entry : 0/0
  2359 ;;		On exit  : 0/0
  2360 ;;		Unchanged: 0/0
  2361 ;; Data sizes:     COMMON   BANK0   BANK1   BANK2   BANK3   BANK4   BANK5   BANK6   BANK7   BANK8   BANK9  BANK10  BANK1
      +1  BANK12
  2362 ;;      Params:         0       0       0       0       0       0       0       0       0       0       0       0       
      +0       0
  2363 ;;      Locals:         0       0       0       0       0       0       0       0       0       0       0       0       
      +0       0
  2364 ;;      Temps:          0       0       0       0       0       0       0       0       0       0       0       0       
      +0       0
  2365 ;;      Totals:         0       0       0       0       0       0       0       0       0       0       0       0       
      +0       0
  2366 ;;Total ram usage:        0 bytes
  2367 ;; Hardware stack levels used: 1
  2368 ;; Hardware stack levels required when called: 5
  2369 ;; This function calls:
  2370 ;;		Nothing
  2371 ;; This function is called by:
  2372 ;;		__write
  2373 ;;		__read
  2374 ;;		_init
  2375 ;; This function uses a non-reentrant model
  2376 ;;
  2377                           
  2378                           
  2379                           ;psect for function _i2c_stop
  2380  02EA                     _i2c_stop:
  2381  02EA                     l1160:	
  2382                           ;incstack = 0
  2383                           ; Regs used in _i2c_stop: []
  2384                           
  2385                           
  2386                           ;i2c.c: 15: SSPCON2bits.PEN = 1;
  2387  02EA  0024               	movlb	4	; select bank4
  2388  02EB  1516               	bsf	22,2	;volatile
  2389  02EC                     l165:	
  2390                           ;i2c.c: 16: while(SSPCON2bits.PEN);
  2391                           
  2392  02EC  1916               	btfsc	22,2	;volatile
  2393  02ED  2AEF               	goto	u451
  2394  02EE  2AF0               	goto	u450
  2395  02EF                     u451:
  2396  02EF  2AEC               	goto	l165
  2397  02F0                     u450:
  2398  02F0                     l168:
  2399  02F0  0008               	return
  2400  02F1                     __end_of_i2c_stop:
  2401                           
  2402                           	psect	text10
  2403  02C3                     __ptext10:	
  2404 ;; *************** function _i2c_start *****************
  2405 ;; Defined at:
  2406 ;;		line 8 in file "i2c.c"
  2407 ;; Parameters:    Size  Location     Type
  2408 ;;		None
  2409 ;; Auto vars:     Size  Location     Type
  2410 ;;		None
  2411 ;; Return value:  Size  Location     Type
  2412 ;;                  1    wreg      void 
  2413 ;; Registers used:
  2414 ;;		wreg, status,2, status,0, pclath, cstack
  2415 ;; Tracked objects:
  2416 ;;		On entry : 0/0
  2417 ;;		On exit  : 0/0
  2418 ;;		Unchanged: 0/0
  2419 ;; Data sizes:     COMMON   BANK0   BANK1   BANK2   BANK3   BANK4   BANK5   BANK6   BANK7   BANK8   BANK9  BANK10  BANK1
      +1  BANK12
  2420 ;;      Params:         0       0       0       0       0       0       0       0       0       0       0       0       
      +0       0
  2421 ;;      Locals:         0       0       0       0       0       0       0       0       0       0       0       0       
      +0       0
  2422 ;;      Temps:          0       0       0       0       0       0       0       0       0       0       0       0       
      +0       0
  2423 ;;      Totals:         0       0       0       0       0       0       0       0       0       0       0       0       
      +0       0
  2424 ;;Total ram usage:        0 bytes
  2425 ;; Hardware stack levels used: 1
  2426 ;; Hardware stack levels required when called: 6
  2427 ;; This function calls:
  2428 ;;		_i2c_wait
  2429 ;; This function is called by:
  2430 ;;		__write
  2431 ;;		__read
  2432 ;;		_init
  2433 ;; This function uses a non-reentrant model
  2434 ;;
  2435                           
  2436                           
  2437                           ;psect for function _i2c_start
  2438  02C3                     _i2c_start:
  2439  02C3                     l1156:	
  2440                           ;incstack = 0
  2441                           ; Regs used in _i2c_start: [wreg+status,2+status,0+pclath+cstack]
  2442                           
  2443                           
  2444                           ;i2c.c: 9: i2c_wait();
  2445  02C3  3182  22A1  3182   	fcall	_i2c_wait
  2446  02C6                     l1158:
  2447                           
  2448                           ;i2c.c: 10: SSPCON2bits.SEN = 1;
  2449  02C6  0024               	movlb	4	; select bank4
  2450  02C7  1416               	bsf	22,0	;volatile
  2451  02C8                     l159:	
  2452                           ;i2c.c: 11: while(SSPCON2bits.SEN);
  2453                           
  2454  02C8  1816               	btfsc	22,0	;volatile
  2455  02C9  2ACB               	goto	u441
  2456  02CA  2ACC               	goto	u440
  2457  02CB                     u441:
  2458  02CB  2AC8               	goto	l159
  2459  02CC                     u440:
  2460  02CC                     l162:
  2461  02CC  0008               	return
  2462  02CD                     __end_of_i2c_start:
  2463                           
  2464                           	psect	text11
  2465  02A1                     __ptext11:	
  2466 ;; *************** function _i2c_wait *****************
  2467 ;; Defined at:
  2468 ;;		line 4 in file "i2c.c"
  2469 ;; Parameters:    Size  Location     Type
  2470 ;;		None
  2471 ;; Auto vars:     Size  Location     Type
  2472 ;;		None
  2473 ;; Return value:  Size  Location     Type
  2474 ;;                  1    wreg      void 
  2475 ;; Registers used:
  2476 ;;		wreg, status,2
  2477 ;; Tracked objects:
  2478 ;;		On entry : 0/0
  2479 ;;		On exit  : 0/0
  2480 ;;		Unchanged: 0/0
  2481 ;; Data sizes:     COMMON   BANK0   BANK1   BANK2   BANK3   BANK4   BANK5   BANK6   BANK7   BANK8   BANK9  BANK10  BANK1
      +1  BANK12
  2482 ;;      Params:         0       0       0       0       0       0       0       0       0       0       0       0       
      +0       0
  2483 ;;      Locals:         0       0       0       0       0       0       0       0       0       0       0       0       
      +0       0
  2484 ;;      Temps:          0       0       0       0       0       0       0       0       0       0       0       0       
      +0       0
  2485 ;;      Totals:         0       0       0       0       0       0       0       0       0       0       0       0       
      +0       0
  2486 ;;Total ram usage:        0 bytes
  2487 ;; Hardware stack levels used: 1
  2488 ;; Hardware stack levels required when called: 5
  2489 ;; This function calls:
  2490 ;;		Nothing
  2491 ;; This function is called by:
  2492 ;;		_i2c_start
  2493 ;;		_i2c_repeated_start
  2494 ;;		_i2c_write
  2495 ;;		_i2c_read
  2496 ;; This function uses a non-reentrant model
  2497 ;;
  2498                           
  2499                           
  2500                           ;psect for function _i2c_wait
  2501  02A1                     _i2c_wait:
  2502  02A1                     l1144:	
  2503                           ;incstack = 0
  2504                           ; Regs used in _i2c_wait: [wreg+status,2]
  2505                           
  2506  02A1                     l1146:	
  2507                           ;i2c.c: 5: while((SSPCON2 & 0x1F) || (SSPSTAT & 0x04));
  2508                           
  2509  02A1  0024               	movlb	4	; select bank4
  2510  02A2  0816               	movf	22,w	;volatile
  2511  02A3  391F               	andlw	31
  2512  02A4  1D03               	btfss	3,2
  2513  02A5  2AA7               	goto	u401
  2514  02A6  2AA8               	goto	u400
  2515  02A7                     u401:
  2516  02A7  2AA1               	goto	l1146
  2517  02A8                     u400:
  2518  02A8                     l1148:
  2519  02A8  1914               	btfsc	20,2	;volatile
  2520  02A9  2AAB               	goto	u411
  2521  02AA  2AAC               	goto	u410
  2522  02AB                     u411:
  2523  02AB  2AA1               	goto	l1146
  2524  02AC                     u410:
  2525  02AC                     l156:
  2526  02AC  0008               	return
  2527  02AD                     __end_of_i2c_wait:
  2528                           
  2529                           	psect	text12
  2530  02CD                     __ptext12:	
  2531 ;; *************** function _SYSTEM_Initialize *****************
  2532 ;; Defined at:
  2533 ;;		line 50 in file "mcc_generated_files/mcc.c"
  2534 ;; Parameters:    Size  Location     Type
  2535 ;;		None
  2536 ;; Auto vars:     Size  Location     Type
  2537 ;;		None
  2538 ;; Return value:  Size  Location     Type
  2539 ;;                  1    wreg      void 
  2540 ;; Registers used:
  2541 ;;		wreg, status,2, status,0, pclath, cstack
  2542 ;; Tracked objects:
  2543 ;;		On entry : 0/0
  2544 ;;		On exit  : 0/0
  2545 ;;		Unchanged: 0/0
  2546 ;; Data sizes:     COMMON   BANK0   BANK1   BANK2   BANK3   BANK4   BANK5   BANK6   BANK7   BANK8   BANK9  BANK10  BANK1
      +1  BANK12
  2547 ;;      Params:         0       0       0       0       0       0       0       0       0       0       0       0       
      +0       0
  2548 ;;      Locals:         0       0       0       0       0       0       0       0       0       0       0       0       
      +0       0
  2549 ;;      Temps:          0       0       0       0       0       0       0       0       0       0       0       0       
      +0       0
  2550 ;;      Totals:         0       0       0       0       0       0       0       0       0       0       0       0       
      +0       0
  2551 ;;Total ram usage:        0 bytes
  2552 ;; Hardware stack levels used: 1
  2553 ;; Hardware stack levels required when called: 6
  2554 ;; This function calls:
  2555 ;;		_OSCILLATOR_Initialize
  2556 ;;		_PIN_MANAGER_Initialize
  2557 ;;		_WDT_Initialize
  2558 ;; This function is called by:
  2559 ;;		_main
  2560 ;; This function uses a non-reentrant model
  2561 ;;
  2562                           
  2563                           
  2564                           ;psect for function _SYSTEM_Initialize
  2565  02CD                     _SYSTEM_Initialize:
  2566  02CD                     l1302:	
  2567                           ;incstack = 0
  2568                           ; Regs used in _SYSTEM_Initialize: [wreg+status,2+status,0+pclath+cstack]
  2569                           
  2570                           
  2571                           ;mcc.c: 53: PIN_MANAGER_Initialize();
  2572  02CD  3182  223B  3182   	fcall	_PIN_MANAGER_Initialize
  2573                           
  2574                           ;mcc.c: 54: OSCILLATOR_Initialize();
  2575  02D0  3182  22F1  3182   	fcall	_OSCILLATOR_Initialize
  2576                           
  2577                           ;mcc.c: 55: WDT_Initialize();
  2578  02D3  3182  22FF  3182   	fcall	_WDT_Initialize
  2579  02D6                     l51:
  2580  02D6  0008               	return
  2581  02D7                     __end_of_SYSTEM_Initialize:
  2582                           
  2583                           	psect	text13
  2584  02FF                     __ptext13:	
  2585 ;; *************** function _WDT_Initialize *****************
  2586 ;; Defined at:
  2587 ;;		line 68 in file "mcc_generated_files/mcc.c"
  2588 ;; Parameters:    Size  Location     Type
  2589 ;;		None
  2590 ;; Auto vars:     Size  Location     Type
  2591 ;;		None
  2592 ;; Return value:  Size  Location     Type
  2593 ;;                  1    wreg      void 
  2594 ;; Registers used:
  2595 ;;		wreg
  2596 ;; Tracked objects:
  2597 ;;		On entry : 0/0
  2598 ;;		On exit  : 0/0
  2599 ;;		Unchanged: 0/0
  2600 ;; Data sizes:     COMMON   BANK0   BANK1   BANK2   BANK3   BANK4   BANK5   BANK6   BANK7   BANK8   BANK9  BANK10  BANK1
      +1  BANK12
  2601 ;;      Params:         0       0       0       0       0       0       0       0       0       0       0       0       
      +0       0
  2602 ;;      Locals:         0       0       0       0       0       0       0       0       0       0       0       0       
      +0       0
  2603 ;;      Temps:          0       0       0       0       0       0       0       0       0       0       0       0       
      +0       0
  2604 ;;      Totals:         0       0       0       0       0       0       0       0       0       0       0       0       
      +0       0
  2605 ;;Total ram usage:        0 bytes
  2606 ;; Hardware stack levels used: 1
  2607 ;; Hardware stack levels required when called: 5
  2608 ;; This function calls:
  2609 ;;		Nothing
  2610 ;; This function is called by:
  2611 ;;		_SYSTEM_Initialize
  2612 ;; This function uses a non-reentrant model
  2613 ;;
  2614                           
  2615                           
  2616                           ;psect for function _WDT_Initialize
  2617  02FF                     _WDT_Initialize:
  2618  02FF                     l1256:	
  2619                           ;incstack = 0
  2620                           ; Regs used in _WDT_Initialize: [wreg]
  2621                           
  2622                           
  2623                           ;mcc.c: 71: WDTCON = 0x16;
  2624  02FF  3016               	movlw	22
  2625  0300  0021               	movlb	1	; select bank1
  2626  0301  0097               	movwf	23	;volatile
  2627  0302                     l57:
  2628  0302  0008               	return
  2629  0303                     __end_of_WDT_Initialize:
  2630                           
  2631                           	psect	text14
  2632  023B                     __ptext14:	
  2633 ;; *************** function _PIN_MANAGER_Initialize *****************
  2634 ;; Defined at:
  2635 ;;		line 55 in file "mcc_generated_files/pin_manager.c"
  2636 ;; Parameters:    Size  Location     Type
  2637 ;;		None
  2638 ;; Auto vars:     Size  Location     Type
  2639 ;;		None
  2640 ;; Return value:  Size  Location     Type
  2641 ;;                  1    wreg      void 
  2642 ;; Registers used:
  2643 ;;		wreg, status,2
  2644 ;; Tracked objects:
  2645 ;;		On entry : 0/0
  2646 ;;		On exit  : 0/0
  2647 ;;		Unchanged: 0/0
  2648 ;; Data sizes:     COMMON   BANK0   BANK1   BANK2   BANK3   BANK4   BANK5   BANK6   BANK7   BANK8   BANK9  BANK10  BANK1
      +1  BANK12
  2649 ;;      Params:         0       0       0       0       0       0       0       0       0       0       0       0       
      +0       0
  2650 ;;      Locals:         0       0       0       0       0       0       0       0       0       0       0       0       
      +0       0
  2651 ;;      Temps:          0       0       0       0       0       0       0       0       0       0       0       0       
      +0       0
  2652 ;;      Totals:         0       0       0       0       0       0       0       0       0       0       0       0       
      +0       0
  2653 ;;Total ram usage:        0 bytes
  2654 ;; Hardware stack levels used: 1
  2655 ;; Hardware stack levels required when called: 5
  2656 ;; This function calls:
  2657 ;;		Nothing
  2658 ;; This function is called by:
  2659 ;;		_SYSTEM_Initialize
  2660 ;; This function uses a non-reentrant model
  2661 ;;
  2662                           
  2663                           
  2664                           ;psect for function _PIN_MANAGER_Initialize
  2665  023B                     _PIN_MANAGER_Initialize:
  2666  023B                     l1234:	
  2667                           ;incstack = 0
  2668                           ; Regs used in _PIN_MANAGER_Initialize: [wreg+status,2]
  2669                           
  2670                           
  2671                           ;pin_manager.c: 60: LATE = 0x00;
  2672  023B  0022               	movlb	2	; select bank2
  2673  023C  0190               	clrf	16	;volatile
  2674                           
  2675                           ;pin_manager.c: 61: LATA = 0x00;
  2676  023D  018C               	clrf	12	;volatile
  2677                           
  2678                           ;pin_manager.c: 62: LATB = 0x00;
  2679  023E  018D               	clrf	13	;volatile
  2680                           
  2681                           ;pin_manager.c: 63: LATC = 0x00;
  2682  023F  018E               	clrf	14	;volatile
  2683  0240                     l1236:
  2684                           
  2685                           ;pin_manager.c: 68: TRISE = 0x08;
  2686  0240  3008               	movlw	8
  2687  0241  0021               	movlb	1	; select bank1
  2688  0242  0090               	movwf	16	;volatile
  2689  0243                     l1238:
  2690                           
  2691                           ;pin_manager.c: 69: TRISA = 0xFF;
  2692  0243  30FF               	movlw	255
  2693  0244  008C               	movwf	12	;volatile
  2694  0245                     l1240:
  2695                           
  2696                           ;pin_manager.c: 70: TRISB = 0xFF;
  2697  0245  30FF               	movlw	255
  2698  0246  008D               	movwf	13	;volatile
  2699  0247                     l1242:
  2700                           
  2701                           ;pin_manager.c: 71: TRISC = 0xFF;
  2702  0247  30FF               	movlw	255
  2703  0248  008E               	movwf	14	;volatile
  2704  0249                     l1244:
  2705                           
  2706                           ;pin_manager.c: 76: ANSELB = 0x3F;
  2707  0249  303F               	movlw	63
  2708  024A  0023               	movlb	3	; select bank3
  2709  024B  008D               	movwf	13	;volatile
  2710  024C                     l1246:
  2711                           
  2712                           ;pin_manager.c: 77: ANSELA = 0x3F;
  2713  024C  303F               	movlw	63
  2714  024D  008C               	movwf	12	;volatile
  2715                           
  2716                           ;pin_manager.c: 82: WPUE = 0x00;
  2717  024E  0024               	movlb	4	; select bank4
  2718  024F  0190               	clrf	16	;volatile
  2719                           
  2720                           ;pin_manager.c: 83: WPUB = 0x00;
  2721  0250  018D               	clrf	13	;volatile
  2722  0251                     l1248:
  2723                           
  2724                           ;pin_manager.c: 84: OPTION_REGbits.nWPUEN = 1;
  2725  0251  0021               	movlb	1	; select bank1
  2726  0252  1795               	bsf	21,7	;volatile
  2727                           
  2728                           ;pin_manager.c: 90: APFCON = 0x00;
  2729  0253  0022               	movlb	2	; select bank2
  2730  0254  019D               	clrf	29	;volatile
  2731  0255                     l31:
  2732  0255  0008               	return
  2733  0256                     __end_of_PIN_MANAGER_Initialize:
  2734                           
  2735                           	psect	text15
  2736  02F1                     __ptext15:	
  2737 ;; *************** function _OSCILLATOR_Initialize *****************
  2738 ;; Defined at:
  2739 ;;		line 58 in file "mcc_generated_files/mcc.c"
  2740 ;; Parameters:    Size  Location     Type
  2741 ;;		None
  2742 ;; Auto vars:     Size  Location     Type
  2743 ;;		None
  2744 ;; Return value:  Size  Location     Type
  2745 ;;                  1    wreg      void 
  2746 ;; Registers used:
  2747 ;;		wreg, status,2
  2748 ;; Tracked objects:
  2749 ;;		On entry : 0/0
  2750 ;;		On exit  : 0/0
  2751 ;;		Unchanged: 0/0
  2752 ;; Data sizes:     COMMON   BANK0   BANK1   BANK2   BANK3   BANK4   BANK5   BANK6   BANK7   BANK8   BANK9  BANK10  BANK1
      +1  BANK12
  2753 ;;      Params:         0       0       0       0       0       0       0       0       0       0       0       0       
      +0       0
  2754 ;;      Locals:         0       0       0       0       0       0       0       0       0       0       0       0       
      +0       0
  2755 ;;      Temps:          0       0       0       0       0       0       0       0       0       0       0       0       
      +0       0
  2756 ;;      Totals:         0       0       0       0       0       0       0       0       0       0       0       0       
      +0       0
  2757 ;;Total ram usage:        0 bytes
  2758 ;; Hardware stack levels used: 1
  2759 ;; Hardware stack levels required when called: 5
  2760 ;; This function calls:
  2761 ;;		Nothing
  2762 ;; This function is called by:
  2763 ;;		_SYSTEM_Initialize
  2764 ;; This function uses a non-reentrant model
  2765 ;;
  2766                           
  2767                           
  2768                           ;psect for function _OSCILLATOR_Initialize
  2769  02F1                     _OSCILLATOR_Initialize:
  2770  02F1                     l1250:	
  2771                           ;incstack = 0
  2772                           ; Regs used in _OSCILLATOR_Initialize: [wreg+status,2]
  2773                           
  2774                           
  2775                           ;mcc.c: 61: OSCCON = 0x70;
  2776  02F1  3070               	movlw	112
  2777  02F2  0021               	movlb	1	; select bank1
  2778  02F3  0099               	movwf	25	;volatile
  2779  02F4                     l1252:
  2780                           
  2781                           ;mcc.c: 63: OSCTUNE = 0x00;
  2782  02F4  0198               	clrf	24	;volatile
  2783  02F5                     l1254:
  2784                           
  2785                           ;mcc.c: 65: BORCON = 0x00;
  2786  02F5  0022               	movlb	2	; select bank2
  2787  02F6  0196               	clrf	22	;volatile
  2788  02F7                     l54:
  2789  02F7  0008               	return
  2790  02F8                     __end_of_OSCILLATOR_Initialize:
  2791                           
  2792                           	psect	intentry
  2793  0004                     __pintentry:	
  2794 ;; *************** function _isr *****************
  2795 ;; Defined at:
  2796 ;;		line 80 in file "main.c"
  2797 ;; Parameters:    Size  Location     Type
  2798 ;;		None
  2799 ;; Auto vars:     Size  Location     Type
  2800 ;;  data            1   15[BANK0 ] unsigned char 
  2801 ;; Return value:  Size  Location     Type
  2802 ;;                  1    wreg      void 
  2803 ;; Registers used:
  2804 ;;		wreg, status,2, status,0, pclath, cstack
  2805 ;; Tracked objects:
  2806 ;;		On entry : 0/0
  2807 ;;		On exit  : 0/0
  2808 ;;		Unchanged: 0/0
  2809 ;; Data sizes:     COMMON   BANK0   BANK1   BANK2   BANK3   BANK4   BANK5   BANK6   BANK7   BANK8   BANK9  BANK10  BANK1
      +1  BANK12
  2810 ;;      Params:         0       0       0       0       0       0       0       0       0       0       0       0       
      +0       0
  2811 ;;      Locals:         0       1       0       0       0       0       0       0       0       0       0       0       
      +0       0
  2812 ;;      Temps:          0       2       0       0       0       0       0       0       0       0       0       0       
      +0       0
  2813 ;;      Totals:         0       3       0       0       0       0       0       0       0       0       0       0       
      +0       0
  2814 ;;Total ram usage:        3 bytes
  2815 ;; Hardware stack levels used: 1
  2816 ;; Hardware stack levels required when called: 4
  2817 ;; This function calls:
  2818 ;;		_send
  2819 ;;		_servo_write
  2820 ;; This function is called by:
  2821 ;;		Interrupt level 1
  2822 ;; This function uses a non-reentrant model
  2823 ;;
  2824                           
  2825  0004                     _isr:
  2826                           
  2827                           ;incstack = 0
  2828  0004  147E               	bsf	int$flags,0	;set compiler interrupt flag (level 1)
  2829                           
  2830                           ; Regs used in _isr: [wreg+status,2+status,0+pclath+cstack]
  2831  0005  3180               	pagesel	$
  2832  0006                     i1l1380:
  2833                           
  2834                           ;main.c: 81: if(PIR1bits.RCIF){
  2835  0006  0020               	movlb	0	; select bank0
  2836  0007  1E91               	btfss	17,5	;volatile
  2837  0008  280A               	goto	u74_21
  2838  0009  280B               	goto	u74_20
  2839  000A                     u74_21:
  2840  000A  284A               	goto	i1l138
  2841  000B                     u74_20:
  2842  000B                     i1l1382:
  2843                           
  2844                           ;main.c: 83: PIR1bits.RCIF = 0;
  2845  000B  1291               	bcf	17,5	;volatile
  2846                           
  2847                           ;main.c: 85: if((RCSTAbits.OERR) || (RCSTAbits.FERR)){
  2848  000C  0023               	movlb	3	; select bank3
  2849  000D  189D               	btfsc	29,1	;volatile
  2850  000E  2810               	goto	u75_21
  2851  000F  2811               	goto	u75_20
  2852  0010                     u75_21:
  2853  0010  2815               	goto	i1l1386
  2854  0011                     u75_20:
  2855  0011                     i1l1384:
  2856  0011  1D1D               	btfss	29,2	;volatile
  2857  0012  2814               	goto	u76_21
  2858  0013  2815               	goto	u76_20
  2859  0014                     u76_21:
  2860  0014  2819               	goto	i1l1390
  2861  0015                     u76_20:
  2862  0015                     i1l1386:
  2863                           
  2864                           ;main.c: 86: RCSTA = 0;
  2865  0015  019D               	clrf	29	;volatile
  2866  0016                     i1l1388:
  2867                           
  2868                           ;main.c: 87: RCSTA = 0x90;
  2869  0016  3090               	movlw	144
  2870  0017  009D               	movwf	29	;volatile
  2871                           
  2872                           ;main.c: 88: }else{
  2873  0018  284A               	goto	i1l138
  2874  0019                     i1l1390:
  2875                           
  2876                           ;main.c: 90: if(flg){
  2877  0019  0020               	movlb	0	; select bank0
  2878  001A  0844               	movf	_flg,w
  2879  001B  1903               	btfsc	3,2
  2880  001C  281E               	goto	u77_21
  2881  001D  281F               	goto	u77_20
  2882  001E                     u77_21:
  2883  001E  2825               	goto	i1l1396
  2884  001F                     u77_20:
  2885  001F                     i1l1392:
  2886                           
  2887                           ;main.c: 91: LATA = 0x01;
  2888  001F  3001               	movlw	1
  2889  0020  0022               	movlb	2	; select bank2
  2890  0021  008C               	movwf	12	;volatile
  2891  0022                     i1l1394:
  2892                           
  2893                           ;main.c: 92: flg = 0;
  2894  0022  0020               	movlb	0	; select bank0
  2895  0023  01C4               	clrf	_flg
  2896                           
  2897                           ;main.c: 93: }else{
  2898  0024  282A               	goto	i1l1400
  2899  0025                     i1l1396:
  2900                           
  2901                           ;main.c: 94: LATA = 0x0;
  2902  0025  0022               	movlb	2	; select bank2
  2903  0026  018C               	clrf	12	;volatile
  2904  0027                     i1l1398:
  2905                           
  2906                           ;main.c: 95: flg = 1;
  2907  0027  0020               	movlb	0	; select bank0
  2908  0028  01C4               	clrf	_flg
  2909  0029  0AC4               	incf	_flg,f
  2910  002A                     i1l1400:
  2911                           
  2912                           ;main.c: 96: };main.c: 98: uint8_t data = RCREG;
  2913  002A  0023               	movlb	3	; select bank3
  2914  002B  0819               	movf	25,w	;volatile
  2915  002C  0020               	movlb	0	; select bank0
  2916  002D  00AD               	movwf	??_isr
  2917  002E  082D               	movf	??_isr,w
  2918  002F  00AF               	movwf	isr@data
  2919  0030                     i1l1402:
  2920                           
  2921                           ;main.c: 99: send(data);
  2922  0030  082F               	movf	isr@data,w
  2923  0031  3182  22E1  3180   	fcall	_send
  2924  0034                     i1l1404:
  2925                           
  2926                           ;main.c: 100: if(data >= 0 && data <= 180){
  2927  0034  30B5               	movlw	181
  2928  0035  0020               	movlb	0	; select bank0
  2929  0036  022F               	subwf	isr@data,w
  2930  0037  1803               	skipnc
  2931  0038  283A               	goto	u78_21
  2932  0039  283B               	goto	u78_20
  2933  003A                     u78_21:
  2934  003A  284A               	goto	i1l138
  2935  003B                     u78_20:
  2936  003B                     i1l1406:
  2937                           
  2938                           ;main.c: 101: ch1_ang = data;
  2939  003B  082F               	movf	isr@data,w
  2940  003C  00AD               	movwf	??_isr
  2941  003D  01AE               	clrf	??_isr+1
  2942  003E  082D               	movf	??_isr,w
  2943  003F  00C2               	movwf	_ch1_ang
  2944  0040  082E               	movf	??_isr+1,w
  2945  0041  00C3               	movwf	_ch1_ang+1
  2946  0042                     i1l1408:
  2947                           
  2948                           ;main.c: 102: servo_write(0, ch1_ang);
  2949  0042  0843               	movf	_ch1_ang+1,w
  2950  0043  00AB               	movwf	servo_write@ang+1
  2951  0044  0842               	movf	_ch1_ang,w
  2952  0045  00AA               	movwf	servo_write@ang
  2953  0046  3000               	movlw	0
  2954  0047  3181  2168  3180   	fcall	_servo_write
  2955  004A                     i1l138:
  2956  004A  107E               	bcf	int$flags,0	;clear compiler interrupt flag (level 1)
  2957  004B  0009               	retfie
  2958  004C                     __end_of_isr:
  2959                           
  2960                           	psect	text17
  2961  0168                     __ptext17:	
  2962 ;; *************** function _servo_write *****************
  2963 ;; Defined at:
  2964 ;;		line 103 in file "PCA9685.c"
  2965 ;; Parameters:    Size  Location     Type
  2966 ;;  ch              1    wreg     unsigned char 
  2967 ;;  ang             2   10[BANK0 ] unsigned int 
  2968 ;; Auto vars:     Size  Location     Type
  2969 ;;  ch              1   12[BANK0 ] unsigned char 
  2970 ;; Return value:  Size  Location     Type
  2971 ;;                  1    wreg      void 
  2972 ;; Registers used:
  2973 ;;		wreg, status,2, status,0, pclath, cstack
  2974 ;; Tracked objects:
  2975 ;;		On entry : 0/0
  2976 ;;		On exit  : 0/0
  2977 ;;		Unchanged: 0/0
  2978 ;; Data sizes:     COMMON   BANK0   BANK1   BANK2   BANK3   BANK4   BANK5   BANK6   BANK7   BANK8   BANK9  BANK10  BANK1
      +1  BANK12
  2979 ;;      Params:         0       2       0       0       0       0       0       0       0       0       0       0       
      +0       0
  2980 ;;      Locals:         0       1       0       0       0       0       0       0       0       0       0       0       
      +0       0
  2981 ;;      Temps:          0       0       0       0       0       0       0       0       0       0       0       0       
      +0       0
  2982 ;;      Totals:         0       3       0       0       0       0       0       0       0       0       0       0       
      +0       0
  2983 ;;Total ram usage:        3 bytes
  2984 ;; Hardware stack levels used: 1
  2985 ;; Hardware stack levels required when called: 3
  2986 ;; This function calls:
  2987 ;;		_map
  2988 ;;		_set_pwm
  2989 ;; This function is called by:
  2990 ;;		_isr
  2991 ;; This function uses a non-reentrant model
  2992 ;;
  2993                           
  2994                           
  2995                           ;psect for function _servo_write
  2996  0168                     _servo_write:
  2997                           
  2998                           ;incstack = 0
  2999                           ; Regs used in _servo_write: [wreg+status,2+status,0+pclath+cstack]
  3000                           ;servo_write@ch stored from wreg
  3001  0168  0020               	movlb	0	; select bank0
  3002  0169  00AC               	movwf	servo_write@ch
  3003  016A                     i1l1334:
  3004                           
  3005                           ;PCA9685.c: 104: ang = map(ang, 0, 180, 150, 500);
  3006  016A  082B               	movf	servo_write@ang+1,w
  3007  016B  00A1               	movwf	map@x+1
  3008  016C  082A               	movf	servo_write@ang,w
  3009  016D  00A0               	movwf	map@x
  3010  016E  3000               	movlw	0
  3011  016F  00A2               	movwf	map@in_min
  3012  0170  00A3               	movwf	map@in_min+1
  3013  0171  30B4               	movlw	180
  3014  0172  00A4               	movwf	map@in_max
  3015  0173  3000               	movlw	0
  3016  0174  00A5               	movwf	map@in_max+1
  3017  0175  3096               	movlw	150
  3018  0176  00A6               	movwf	map@out_min
  3019  0177  3000               	movlw	0
  3020  0178  00A7               	movwf	map@out_min+1
  3021  0179  30F4               	movlw	244
  3022  017A  00A8               	movwf	map@out_max
  3023  017B  3001               	movlw	1
  3024  017C  00A9               	movwf	map@out_max+1
  3025  017D  3181  21B9  3181   	fcall	_map
  3026  0180  0020               	movlb	0	; select bank0
  3027  0181  0821               	movf	?_map+1,w
  3028  0182  00AB               	movwf	servo_write@ang+1
  3029  0183  0820               	movf	?_map,w
  3030  0184  00AA               	movwf	servo_write@ang
  3031                           
  3032                           ;PCA9685.c: 105: set_pwm(ch, 0, ang);
  3033  0185  3000               	movlw	0
  3034  0186  00F1               	movwf	set_pwm@on
  3035  0187  00F2               	movwf	set_pwm@on+1
  3036  0188  082B               	movf	servo_write@ang+1,w
  3037  0189  00F4               	movwf	set_pwm@off+1
  3038  018A  082A               	movf	servo_write@ang,w
  3039  018B  00F3               	movwf	set_pwm@off
  3040  018C  082C               	movf	servo_write@ch,w
  3041  018D  3181  2191  3181   	fcall	_set_pwm
  3042  0190                     i1l222:
  3043  0190  0008               	return
  3044  0191                     __end_of_servo_write:
  3045                           
  3046                           	psect	text18
  3047  0191                     __ptext18:	
  3048 ;; *************** function _set_pwm *****************
  3049 ;; Defined at:
  3050 ;;		line 62 in file "PCA9685.c"
  3051 ;; Parameters:    Size  Location     Type
  3052 ;;  num             1    wreg     unsigned char 
  3053 ;;  on              2    1[COMMON] unsigned int 
  3054 ;;  off             2    3[COMMON] unsigned int 
  3055 ;; Auto vars:     Size  Location     Type
  3056 ;;  num             1    6[COMMON] unsigned char 
  3057 ;; Return value:  Size  Location     Type
  3058 ;;                  1    wreg      void 
  3059 ;; Registers used:
  3060 ;;		wreg, status,2, status,0, pclath, cstack
  3061 ;; Tracked objects:
  3062 ;;		On entry : 0/0
  3063 ;;		On exit  : 0/0
  3064 ;;		Unchanged: 0/0
  3065 ;; Data sizes:     COMMON   BANK0   BANK1   BANK2   BANK3   BANK4   BANK5   BANK6   BANK7   BANK8   BANK9  BANK10  BANK1
      +1  BANK12
  3066 ;;      Params:         4       0       0       0       0       0       0       0       0       0       0       0       
      +0       0
  3067 ;;      Locals:         1       0       0       0       0       0       0       0       0       0       0       0       
      +0       0
  3068 ;;      Temps:          1       0       0       0       0       0       0       0       0       0       0       0       
      +0       0
  3069 ;;      Totals:         6       0       0       0       0       0       0       0       0       0       0       0       
      +0       0
  3070 ;;Total ram usage:        6 bytes
  3071 ;; Hardware stack levels used: 1
  3072 ;; Hardware stack levels required when called: 2
  3073 ;; This function calls:
  3074 ;;		i1_i2c_start
  3075 ;;		i1_i2c_stop
  3076 ;;		i1_i2c_write
  3077 ;; This function is called by:
  3078 ;;		_servo_write
  3079 ;; This function uses a non-reentrant model
  3080 ;;
  3081                           
  3082                           
  3083                           ;psect for function _set_pwm
  3084  0191                     _set_pwm:
  3085                           
  3086                           ;incstack = 0
  3087                           ; Regs used in _set_pwm: [wreg+status,2+status,0+pclath+cstack]
  3088                           ;set_pwm@num stored from wreg
  3089  0191  00F6               	movwf	set_pwm@num
  3090  0192                     i1l1268:
  3091                           
  3092                           ;PCA9685.c: 63: i2c_start();
  3093  0192  3182  22D7  3181   	fcall	i1_i2c_start
  3094                           
  3095                           ;PCA9685.c: 64: i2c_write(0x80);
  3096  0195  3080               	movlw	128
  3097  0196  3182  2291  3181   	fcall	i1_i2c_write
  3098                           
  3099                           ;PCA9685.c: 65: i2c_write(0x06 + 4 * num);
  3100  0199  0876               	movf	set_pwm@num,w
  3101  019A  00F5               	movwf	??_set_pwm
  3102  019B  3001               	movlw	1
  3103  019C                     u65_25:
  3104  019C  35F5               	lslf	??_set_pwm,f
  3105  019D  3EFF               	addlw	-1
  3106  019E  1D03               	skipz
  3107  019F  299C               	goto	u65_25
  3108  01A0  3575               	lslf	??_set_pwm,w
  3109  01A1  3E06               	addlw	6
  3110  01A2  3182  2291  3181   	fcall	i1_i2c_write
  3111                           
  3112                           ;PCA9685.c: 66: i2c_write(on);
  3113  01A5  0871               	movf	set_pwm@on,w
  3114  01A6  3182  2291  3181   	fcall	i1_i2c_write
  3115                           
  3116                           ;PCA9685.c: 67: i2c_write(on >> 8);
  3117  01A9  0872               	movf	set_pwm@on+1,w
  3118  01AA  3182  2291  3181   	fcall	i1_i2c_write
  3119                           
  3120                           ;PCA9685.c: 68: i2c_write(off);
  3121  01AD  0873               	movf	set_pwm@off,w
  3122  01AE  3182  2291  3181   	fcall	i1_i2c_write
  3123                           
  3124                           ;PCA9685.c: 69: i2c_write(off >> 8);
  3125  01B1  0874               	movf	set_pwm@off+1,w
  3126  01B2  3182  2291  3181   	fcall	i1_i2c_write
  3127  01B5                     i1l1270:
  3128                           
  3129                           ;PCA9685.c: 70: i2c_stop();
  3130  01B5  3182  22F8  3181   	fcall	i1_i2c_stop
  3131  01B8                     i1l213:
  3132  01B8  0008               	return
  3133  01B9                     __end_of_set_pwm:
  3134                           
  3135                           	psect	text19
  3136  0291                     __ptext19:	
  3137 ;; *************** function i1_i2c_write *****************
  3138 ;; Defined at:
  3139 ;;		line 25 in file "i2c.c"
  3140 ;; Parameters:    Size  Location     Type
  3141 ;;  data            1    wreg     unsigned char 
  3142 ;; Auto vars:     Size  Location     Type
  3143 ;;  data            1    0[COMMON] unsigned char 
  3144 ;; Return value:  Size  Location     Type
  3145 ;;                  1    wreg      void 
  3146 ;; Registers used:
  3147 ;;		wreg, status,2, status,0, pclath, cstack
  3148 ;; Tracked objects:
  3149 ;;		On entry : 0/0
  3150 ;;		On exit  : 0/0
  3151 ;;		Unchanged: 0/0
  3152 ;; Data sizes:     COMMON   BANK0   BANK1   BANK2   BANK3   BANK4   BANK5   BANK6   BANK7   BANK8   BANK9  BANK10  BANK1
      +1  BANK12
  3153 ;;      Params:         0       0       0       0       0       0       0       0       0       0       0       0       
      +0       0
  3154 ;;      Locals:         1       0       0       0       0       0       0       0       0       0       0       0       
      +0       0
  3155 ;;      Temps:          0       0       0       0       0       0       0       0       0       0       0       0       
      +0       0
  3156 ;;      Totals:         1       0       0       0       0       0       0       0       0       0       0       0       
      +0       0
  3157 ;;Total ram usage:        1 bytes
  3158 ;; Hardware stack levels used: 1
  3159 ;; Hardware stack levels required when called: 1
  3160 ;; This function calls:
  3161 ;;		i1_i2c_wait
  3162 ;; This function is called by:
  3163 ;;		_set_pwm
  3164 ;; This function uses a non-reentrant model
  3165 ;;
  3166                           
  3167                           
  3168                           ;psect for function i1_i2c_write
  3169  0291                     i1_i2c_write:
  3170                           
  3171                           ;incstack = 0
  3172                           ; Regs used in i1_i2c_write: [wreg+status,2+status,0+pclath+cstack]
  3173                           ;i1i2c_write@data stored from wreg
  3174  0291  00F0               	movwf	i1i2c_write@data
  3175  0292                     i1l1204:
  3176                           
  3177                           ;i2c.c: 26: SSPBUF = data;
  3178  0292  0870               	movf	i1i2c_write@data,w
  3179  0293  0024               	movlb	4	; select bank4
  3180  0294  0091               	movwf	17	;volatile
  3181  0295                     i1l177:	
  3182                           ;i2c.c: 27: while(SSPSTATbits.BF);
  3183                           
  3184  0295  1814               	btfsc	20,0	;volatile
  3185  0296  2A98               	goto	u56_21
  3186  0297  2A99               	goto	u56_20
  3187  0298                     u56_21:
  3188  0298  2A95               	goto	i1l177
  3189  0299                     u56_20:
  3190  0299                     i1l180:
  3191  0299  1B16               	btfsc	22,6	;volatile
  3192  029A  2A9C               	goto	u57_21
  3193  029B  2A9D               	goto	u57_20
  3194  029C                     u57_21:
  3195  029C  2A99               	goto	i1l180
  3196  029D                     u57_20:
  3197  029D                     i1l1206:
  3198                           
  3199                           ;i2c.c: 29: i2c_wait();
  3200  029D  3182  22AD  3182   	fcall	i1_i2c_wait
  3201  02A0                     i1l183:
  3202  02A0  0008               	return
  3203  02A1                     __end_ofi1_i2c_write:
  3204                           
  3205                           	psect	text20
  3206  02F8                     __ptext20:	
  3207 ;; *************** function i1_i2c_stop *****************
  3208 ;; Defined at:
  3209 ;;		line 14 in file "i2c.c"
  3210 ;; Parameters:    Size  Location     Type
  3211 ;;		None
  3212 ;; Auto vars:     Size  Location     Type
  3213 ;;		None
  3214 ;; Return value:  Size  Location     Type
  3215 ;;                  1    wreg      void 
  3216 ;; Registers used:
  3217 ;;		None
  3218 ;; Tracked objects:
  3219 ;;		On entry : 0/0
  3220 ;;		On exit  : 0/0
  3221 ;;		Unchanged: 0/0
  3222 ;; Data sizes:     COMMON   BANK0   BANK1   BANK2   BANK3   BANK4   BANK5   BANK6   BANK7   BANK8   BANK9  BANK10  BANK1
      +1  BANK12
  3223 ;;      Params:         0       0       0       0       0       0       0       0       0       0       0       0       
      +0       0
  3224 ;;      Locals:         0       0       0       0       0       0       0       0       0       0       0       0       
      +0       0
  3225 ;;      Temps:          0       0       0       0       0       0       0       0       0       0       0       0       
      +0       0
  3226 ;;      Totals:         0       0       0       0       0       0       0       0       0       0       0       0       
      +0       0
  3227 ;;Total ram usage:        0 bytes
  3228 ;; Hardware stack levels used: 1
  3229 ;; This function calls:
  3230 ;;		Nothing
  3231 ;; This function is called by:
  3232 ;;		_set_pwm
  3233 ;; This function uses a non-reentrant model
  3234 ;;
  3235                           
  3236                           
  3237                           ;psect for function i1_i2c_stop
  3238  02F8                     i1_i2c_stop:
  3239  02F8                     i1l1202:	
  3240                           ;incstack = 0
  3241                           ; Regs used in i1_i2c_stop: []
  3242                           
  3243                           
  3244                           ;i2c.c: 15: SSPCON2bits.PEN = 1;
  3245  02F8  0024               	movlb	4	; select bank4
  3246  02F9  1516               	bsf	22,2	;volatile
  3247  02FA                     i1l165:	
  3248                           ;i2c.c: 16: while(SSPCON2bits.PEN);
  3249                           
  3250  02FA  1916               	btfsc	22,2	;volatile
  3251  02FB  2AFD               	goto	u55_21
  3252  02FC  2AFE               	goto	u55_20
  3253  02FD                     u55_21:
  3254  02FD  2AFA               	goto	i1l165
  3255  02FE                     u55_20:
  3256  02FE                     i1l168:
  3257  02FE  0008               	return
  3258  02FF                     __end_ofi1_i2c_stop:
  3259                           
  3260                           	psect	text21
  3261  02D7                     __ptext21:	
  3262 ;; *************** function i1_i2c_start *****************
  3263 ;; Defined at:
  3264 ;;		line 8 in file "i2c.c"
  3265 ;; Parameters:    Size  Location     Type
  3266 ;;		None
  3267 ;; Auto vars:     Size  Location     Type
  3268 ;;		None
  3269 ;; Return value:  Size  Location     Type
  3270 ;;                  1    wreg      void 
  3271 ;; Registers used:
  3272 ;;		wreg, status,2, status,0, pclath, cstack
  3273 ;; Tracked objects:
  3274 ;;		On entry : 0/0
  3275 ;;		On exit  : 0/0
  3276 ;;		Unchanged: 0/0
  3277 ;; Data sizes:     COMMON   BANK0   BANK1   BANK2   BANK3   BANK4   BANK5   BANK6   BANK7   BANK8   BANK9  BANK10  BANK1
      +1  BANK12
  3278 ;;      Params:         0       0       0       0       0       0       0       0       0       0       0       0       
      +0       0
  3279 ;;      Locals:         0       0       0       0       0       0       0       0       0       0       0       0       
      +0       0
  3280 ;;      Temps:          0       0       0       0       0       0       0       0       0       0       0       0       
      +0       0
  3281 ;;      Totals:         0       0       0       0       0       0       0       0       0       0       0       0       
      +0       0
  3282 ;;Total ram usage:        0 bytes
  3283 ;; Hardware stack levels used: 1
  3284 ;; Hardware stack levels required when called: 1
  3285 ;; This function calls:
  3286 ;;		i1_i2c_wait
  3287 ;; This function is called by:
  3288 ;;		_set_pwm
  3289 ;; This function uses a non-reentrant model
  3290 ;;
  3291                           
  3292                           
  3293                           ;psect for function i1_i2c_start
  3294  02D7                     i1_i2c_start:
  3295  02D7                     i1l1198:	
  3296                           ;incstack = 0
  3297                           ; Regs used in i1_i2c_start: [wreg+status,2+status,0+pclath+cstack]
  3298                           
  3299                           
  3300                           ;i2c.c: 9: i2c_wait();
  3301  02D7  3182  22AD  3182   	fcall	i1_i2c_wait
  3302  02DA                     i1l1200:
  3303                           
  3304                           ;i2c.c: 10: SSPCON2bits.SEN = 1;
  3305  02DA  0024               	movlb	4	; select bank4
  3306  02DB  1416               	bsf	22,0	;volatile
  3307  02DC                     i1l159:	
  3308                           ;i2c.c: 11: while(SSPCON2bits.SEN);
  3309                           
  3310  02DC  1816               	btfsc	22,0	;volatile
  3311  02DD  2ADF               	goto	u54_21
  3312  02DE  2AE0               	goto	u54_20
  3313  02DF                     u54_21:
  3314  02DF  2ADC               	goto	i1l159
  3315  02E0                     u54_20:
  3316  02E0                     i1l162:
  3317  02E0  0008               	return
  3318  02E1                     __end_ofi1_i2c_start:
  3319                           
  3320                           	psect	text22
  3321  02AD                     __ptext22:	
  3322 ;; *************** function i1_i2c_wait *****************
  3323 ;; Defined at:
  3324 ;;		line 4 in file "i2c.c"
  3325 ;; Parameters:    Size  Location     Type
  3326 ;;		None
  3327 ;; Auto vars:     Size  Location     Type
  3328 ;;		None
  3329 ;; Return value:  Size  Location     Type
  3330 ;;                  1    wreg      void 
  3331 ;; Registers used:
  3332 ;;		wreg, status,2
  3333 ;; Tracked objects:
  3334 ;;		On entry : 0/0
  3335 ;;		On exit  : 0/0
  3336 ;;		Unchanged: 0/0
  3337 ;; Data sizes:     COMMON   BANK0   BANK1   BANK2   BANK3   BANK4   BANK5   BANK6   BANK7   BANK8   BANK9  BANK10  BANK1
      +1  BANK12
  3338 ;;      Params:         0       0       0       0       0       0       0       0       0       0       0       0       
      +0       0
  3339 ;;      Locals:         0       0       0       0       0       0       0       0       0       0       0       0       
      +0       0
  3340 ;;      Temps:          0       0       0       0       0       0       0       0       0       0       0       0       
      +0       0
  3341 ;;      Totals:         0       0       0       0       0       0       0       0       0       0       0       0       
      +0       0
  3342 ;;Total ram usage:        0 bytes
  3343 ;; Hardware stack levels used: 1
  3344 ;; This function calls:
  3345 ;;		Nothing
  3346 ;; This function is called by:
  3347 ;;		i1_i2c_start
  3348 ;;		i1_i2c_write
  3349 ;; This function uses a non-reentrant model
  3350 ;;
  3351                           
  3352                           
  3353                           ;psect for function i1_i2c_wait
  3354  02AD                     i1_i2c_wait:
  3355  02AD                     i1l1150:	
  3356                           ;incstack = 0
  3357                           ; Regs used in i1_i2c_wait: [wreg+status,2]
  3358                           
  3359  02AD                     i1l1152:	
  3360                           ;i2c.c: 5: while((SSPCON2 & 0x1F) || (SSPSTAT & 0x04));
  3361                           
  3362  02AD  0024               	movlb	4	; select bank4
  3363  02AE  0816               	movf	22,w	;volatile
  3364  02AF  391F               	andlw	31
  3365  02B0  1D03               	btfss	3,2
  3366  02B1  2AB3               	goto	u42_21
  3367  02B2  2AB4               	goto	u42_20
  3368  02B3                     u42_21:
  3369  02B3  2AAD               	goto	i1l1152
  3370  02B4                     u42_20:
  3371  02B4                     i1l1154:
  3372  02B4  1914               	btfsc	20,2	;volatile
  3373  02B5  2AB7               	goto	u43_21
  3374  02B6  2AB8               	goto	u43_20
  3375  02B7                     u43_21:
  3376  02B7  2AAD               	goto	i1l1152
  3377  02B8                     u43_20:
  3378  02B8                     i1l156:
  3379  02B8  0008               	return
  3380  02B9                     __end_ofi1_i2c_wait:
  3381                           
  3382                           	psect	text23
  3383  01B9                     __ptext23:	
  3384 ;; *************** function _map *****************
  3385 ;; Defined at:
  3386 ;;		line 94 in file "PCA9685.c"
  3387 ;; Parameters:    Size  Location     Type
  3388 ;;  x               2    0[BANK0 ] unsigned int 
  3389 ;;  in_min          2    2[BANK0 ] unsigned int 
  3390 ;;  in_max          2    4[BANK0 ] unsigned int 
  3391 ;;  out_min         2    6[BANK0 ] unsigned int 
  3392 ;;  out_max         2    8[BANK0 ] unsigned int 
  3393 ;; Auto vars:     Size  Location     Type
  3394 ;;		None
  3395 ;; Return value:  Size  Location     Type
  3396 ;;                  2    0[BANK0 ] unsigned int 
  3397 ;; Registers used:
  3398 ;;		wreg, status,2, status,0, pclath, cstack
  3399 ;; Tracked objects:
  3400 ;;		On entry : 0/0
  3401 ;;		On exit  : 0/0
  3402 ;;		Unchanged: 0/0
  3403 ;; Data sizes:     COMMON   BANK0   BANK1   BANK2   BANK3   BANK4   BANK5   BANK6   BANK7   BANK8   BANK9  BANK10  BANK1
      +1  BANK12
  3404 ;;      Params:         0      10       0       0       0       0       0       0       0       0       0       0       
      +0       0
  3405 ;;      Locals:         0       0       0       0       0       0       0       0       0       0       0       0       
      +0       0
  3406 ;;      Temps:          0       0       0       0       0       0       0       0       0       0       0       0       
      +0       0
  3407 ;;      Totals:         0      10       0       0       0       0       0       0       0       0       0       0       
      +0       0
  3408 ;;Total ram usage:       10 bytes
  3409 ;; Hardware stack levels used: 1
  3410 ;; Hardware stack levels required when called: 1
  3411 ;; This function calls:
  3412 ;;		___wmul
  3413 ;;		i1___lwdiv
  3414 ;; This function is called by:
  3415 ;;		_servo_write
  3416 ;; This function uses a non-reentrant model
  3417 ;;
  3418                           
  3419                           
  3420                           ;psect for function _map
  3421  01B9                     _map:
  3422  01B9                     i1l1272:	
  3423                           ;incstack = 0
  3424                           ; Regs used in _map: [wreg+status,2+status,0+pclath+cstack]
  3425                           
  3426                           
  3427                           ;PCA9685.c: 95: return (x - in_min) * (out_max - out_min) / (in_max - in_min) + out_min;
  3428  01B9  0020               	movlb	0	; select bank0
  3429  01BA  0822               	movf	map@in_min,w
  3430  01BB  0224               	subwf	map@in_max,w
  3431  01BC  00F6               	movwf	i1___lwdiv@divisor
  3432  01BD  0823               	movf	map@in_min+1,w
  3433  01BE  3B25               	subwfb	map@in_max+1,w
  3434  01BF  00F7               	movwf	i1___lwdiv@divisor+1
  3435  01C0  0822               	movf	map@in_min,w
  3436  01C1  0220               	subwf	map@x,w
  3437  01C2  00F0               	movwf	___wmul@multiplier
  3438  01C3  0823               	movf	map@in_min+1,w
  3439  01C4  3B21               	subwfb	map@x+1,w
  3440  01C5  00F1               	movwf	___wmul@multiplier+1
  3441  01C6  0826               	movf	map@out_min,w
  3442  01C7  0228               	subwf	map@out_max,w
  3443  01C8  00F2               	movwf	___wmul@multiplicand
  3444  01C9  0827               	movf	map@out_min+1,w
  3445  01CA  3B29               	subwfb	map@out_max+1,w
  3446  01CB  00F3               	movwf	___wmul@multiplicand+1
  3447  01CC  3182  2201  3181   	fcall	___wmul
  3448  01CF  0871               	movf	?___wmul+1,w
  3449  01D0  00F9               	movwf	i1___lwdiv@dividend+1
  3450  01D1  0870               	movf	?___wmul,w
  3451  01D2  00F8               	movwf	i1___lwdiv@dividend
  3452  01D3  3181  212C  3181   	fcall	i1___lwdiv
  3453  01D6  0020               	movlb	0	; select bank0
  3454  01D7  0826               	movf	map@out_min,w
  3455  01D8  0776               	addwf	?i1___lwdiv,w
  3456  01D9  00A0               	movwf	?_map
  3457  01DA  0827               	movf	map@out_min+1,w
  3458  01DB  3D77               	addwfc	?i1___lwdiv+1,w
  3459  01DC  00A1               	movwf	?_map+1
  3460  01DD                     i1l219:
  3461  01DD  0008               	return
  3462  01DE                     __end_of_map:
  3463                           
  3464                           	psect	text24
  3465  012C                     __ptext24:	
  3466 ;; *************** function i1___lwdiv *****************
  3467 ;; Defined at:
  3468 ;;		line 5 in file "C:\Program Files\Microchip\xc8\v2.32\pic\sources\c90\common\lwdiv.c"
  3469 ;; Parameters:    Size  Location     Type
  3470 ;;  divisor         2    6[COMMON] unsigned int 
  3471 ;;  dividend        2    8[COMMON] unsigned int 
  3472 ;; Auto vars:     Size  Location     Type
  3473 ;;  quotient        2   11[COMMON] unsigned int 
  3474 ;;  counter         1   13[COMMON] unsigned char 
  3475 ;; Return value:  Size  Location     Type
  3476 ;;                  2    6[COMMON] unsigned int 
  3477 ;; Registers used:
  3478 ;;		wreg, status,2, status,0
  3479 ;; Tracked objects:
  3480 ;;		On entry : 0/0
  3481 ;;		On exit  : 0/0
  3482 ;;		Unchanged: 0/0
  3483 ;; Data sizes:     COMMON   BANK0   BANK1   BANK2   BANK3   BANK4   BANK5   BANK6   BANK7   BANK8   BANK9  BANK10  BANK1
      +1  BANK12
  3484 ;;      Params:         4       0       0       0       0       0       0       0       0       0       0       0       
      +0       0
  3485 ;;      Locals:         3       0       0       0       0       0       0       0       0       0       0       0       
      +0       0
  3486 ;;      Temps:          1       0       0       0       0       0       0       0       0       0       0       0       
      +0       0
  3487 ;;      Totals:         8       0       0       0       0       0       0       0       0       0       0       0       
      +0       0
  3488 ;;Total ram usage:        8 bytes
  3489 ;; Hardware stack levels used: 1
  3490 ;; This function calls:
  3491 ;;		Nothing
  3492 ;; This function is called by:
  3493 ;;		_map
  3494 ;; This function uses a non-reentrant model
  3495 ;;
  3496                           
  3497                           
  3498                           ;psect for function i1___lwdiv
  3499  012C                     i1___lwdiv:
  3500  012C                     i1l1208:	
  3501                           ;incstack = 0
  3502                           ; Regs used in i1___lwdiv: [wreg+status,2+status,0]
  3503                           
  3504  012C  01FB               	clrf	i1___lwdiv@quotient
  3505  012D  01FC               	clrf	i1___lwdiv@quotient+1
  3506  012E                     i1l1210:
  3507  012E  0876               	movf	i1___lwdiv@divisor,w
  3508  012F  0477               	iorwf	i1___lwdiv@divisor+1,w
  3509  0130  1903               	btfsc	3,2
  3510  0131  2933               	goto	u58_21
  3511  0132  2934               	goto	u58_20
  3512  0133                     u58_21:
  3513  0133  2963               	goto	i1l1230
  3514  0134                     u58_20:
  3515  0134                     i1l1212:
  3516  0134  01FD               	clrf	i1___lwdiv@counter
  3517  0135  0AFD               	incf	i1___lwdiv@counter,f
  3518  0136  2940               	goto	i1l1218
  3519  0137                     i1l1214:
  3520  0137  3001               	movlw	1
  3521  0138                     u59_25:
  3522  0138  35F6               	lslf	i1___lwdiv@divisor,f
  3523  0139  0DF7               	rlf	i1___lwdiv@divisor+1,f
  3524  013A  0B89               	decfsz	9,f
  3525  013B  2938               	goto	u59_25
  3526  013C                     i1l1216:
  3527  013C  3001               	movlw	1
  3528  013D  00FA               	movwf	??i1___lwdiv
  3529  013E  087A               	movf	??i1___lwdiv,w
  3530  013F  07FD               	addwf	i1___lwdiv@counter,f
  3531  0140                     i1l1218:
  3532  0140  1FF7               	btfss	i1___lwdiv@divisor+1,7
  3533  0141  2943               	goto	u60_21
  3534  0142  2944               	goto	u60_20
  3535  0143                     u60_21:
  3536  0143  2937               	goto	i1l1214
  3537  0144                     u60_20:
  3538  0144                     i1l1220:
  3539  0144  3001               	movlw	1
  3540  0145                     u61_25:
  3541  0145  35FB               	lslf	i1___lwdiv@quotient,f
  3542  0146  0DFC               	rlf	i1___lwdiv@quotient+1,f
  3543  0147  0B89               	decfsz	9,f
  3544  0148  2945               	goto	u61_25
  3545  0149  0877               	movf	i1___lwdiv@divisor+1,w
  3546  014A  0279               	subwf	i1___lwdiv@dividend+1,w
  3547  014B  1D03               	skipz
  3548  014C  294F               	goto	u62_25
  3549  014D  0876               	movf	i1___lwdiv@divisor,w
  3550  014E  0278               	subwf	i1___lwdiv@dividend,w
  3551  014F                     u62_25:
  3552  014F  1C03               	skipc
  3553  0150  2952               	goto	u62_21
  3554  0151  2953               	goto	u62_20
  3555  0152                     u62_21:
  3556  0152  2958               	goto	i1l1226
  3557  0153                     u62_20:
  3558  0153                     i1l1222:
  3559  0153  0876               	movf	i1___lwdiv@divisor,w
  3560  0154  02F8               	subwf	i1___lwdiv@dividend,f
  3561  0155  0877               	movf	i1___lwdiv@divisor+1,w
  3562  0156  3BF9               	subwfb	i1___lwdiv@dividend+1,f
  3563  0157                     i1l1224:
  3564  0157  147B               	bsf	i1___lwdiv@quotient,0
  3565  0158                     i1l1226:
  3566  0158  3001               	movlw	1
  3567  0159                     u63_25:
  3568  0159  36F7               	lsrf	i1___lwdiv@divisor+1,f
  3569  015A  0CF6               	rrf	i1___lwdiv@divisor,f
  3570  015B  0B89               	decfsz	9,f
  3571  015C  2959               	goto	u63_25
  3572  015D                     i1l1228:
  3573  015D  3001               	movlw	1
  3574  015E  02FD               	subwf	i1___lwdiv@counter,f
  3575  015F  1D03               	btfss	3,2
  3576  0160  2962               	goto	u64_21
  3577  0161  2963               	goto	u64_20
  3578  0162                     u64_21:
  3579  0162  2944               	goto	i1l1220
  3580  0163                     u64_20:
  3581  0163                     i1l1230:
  3582  0163  087C               	movf	i1___lwdiv@quotient+1,w
  3583  0164  00F7               	movwf	?i1___lwdiv+1
  3584  0165  087B               	movf	i1___lwdiv@quotient,w
  3585  0166  00F6               	movwf	?i1___lwdiv
  3586  0167                     i1l644:
  3587  0167  0008               	return
  3588  0168                     __end_ofi1___lwdiv:
  3589                           
  3590                           	psect	text25
  3591  0201                     __ptext25:	
  3592 ;; *************** function ___wmul *****************
  3593 ;; Defined at:
  3594 ;;		line 15 in file "C:\Program Files\Microchip\xc8\v2.32\pic\sources\c90\common\Umul16.c"
  3595 ;; Parameters:    Size  Location     Type
  3596 ;;  multiplier      2    0[COMMON] unsigned int 
  3597 ;;  multiplicand    2    2[COMMON] unsigned int 
  3598 ;; Auto vars:     Size  Location     Type
  3599 ;;  product         2    4[COMMON] unsigned int 
  3600 ;; Return value:  Size  Location     Type
  3601 ;;                  2    0[COMMON] unsigned int 
  3602 ;; Registers used:
  3603 ;;		wreg, status,2, status,0
  3604 ;; Tracked objects:
  3605 ;;		On entry : 0/0
  3606 ;;		On exit  : 0/0
  3607 ;;		Unchanged: 0/0
  3608 ;; Data sizes:     COMMON   BANK0   BANK1   BANK2   BANK3   BANK4   BANK5   BANK6   BANK7   BANK8   BANK9  BANK10  BANK1
      +1  BANK12
  3609 ;;      Params:         4       0       0       0       0       0       0       0       0       0       0       0       
      +0       0
  3610 ;;      Locals:         2       0       0       0       0       0       0       0       0       0       0       0       
      +0       0
  3611 ;;      Temps:          0       0       0       0       0       0       0       0       0       0       0       0       
      +0       0
  3612 ;;      Totals:         6       0       0       0       0       0       0       0       0       0       0       0       
      +0       0
  3613 ;;Total ram usage:        6 bytes
  3614 ;; Hardware stack levels used: 1
  3615 ;; This function calls:
  3616 ;;		Nothing
  3617 ;; This function is called by:
  3618 ;;		_map
  3619 ;; This function uses a non-reentrant model
  3620 ;;
  3621                           
  3622                           
  3623                           ;psect for function ___wmul
  3624  0201                     ___wmul:
  3625  0201                     i1l1184:	
  3626                           ;incstack = 0
  3627                           ; Regs used in ___wmul: [wreg+status,2+status,0]
  3628                           
  3629  0201  01F4               	clrf	___wmul@product
  3630  0202  01F5               	clrf	___wmul@product+1
  3631  0203                     i1l1186:
  3632  0203  1C70               	btfss	___wmul@multiplier,0
  3633  0204  2A06               	goto	u50_21
  3634  0205  2A07               	goto	u50_20
  3635  0206                     u50_21:
  3636  0206  2A0B               	goto	i1l372
  3637  0207                     u50_20:
  3638  0207                     i1l1188:
  3639  0207  0872               	movf	___wmul@multiplicand,w
  3640  0208  07F4               	addwf	___wmul@product,f
  3641  0209  0873               	movf	___wmul@multiplicand+1,w
  3642  020A  3DF5               	addwfc	___wmul@product+1,f
  3643  020B                     i1l372:
  3644  020B  3001               	movlw	1
  3645  020C                     u51_25:
  3646  020C  35F2               	lslf	___wmul@multiplicand,f
  3647  020D  0DF3               	rlf	___wmul@multiplicand+1,f
  3648  020E  0B89               	decfsz	9,f
  3649  020F  2A0C               	goto	u51_25
  3650  0210                     i1l1190:
  3651  0210  3001               	movlw	1
  3652  0211                     u52_25:
  3653  0211  36F1               	lsrf	___wmul@multiplier+1,f
  3654  0212  0CF0               	rrf	___wmul@multiplier,f
  3655  0213  0B89               	decfsz	9,f
  3656  0214  2A11               	goto	u52_25
  3657  0215                     i1l1192:
  3658  0215  0870               	movf	___wmul@multiplier,w
  3659  0216  0471               	iorwf	___wmul@multiplier+1,w
  3660  0217  1D03               	btfss	3,2
  3661  0218  2A1A               	goto	u53_21
  3662  0219  2A1B               	goto	u53_20
  3663  021A                     u53_21:
  3664  021A  2A03               	goto	i1l1186
  3665  021B                     u53_20:
  3666  021B                     i1l1194:
  3667  021B  0875               	movf	___wmul@product+1,w
  3668  021C  00F1               	movwf	?___wmul+1
  3669  021D  0874               	movf	___wmul@product,w
  3670  021E  00F0               	movwf	?___wmul
  3671  021F                     i1l374:
  3672  021F  0008               	return
  3673  0220                     __end_of___wmul:
  3674                           
  3675                           	psect	text26
  3676  02E1                     __ptext26:	
  3677 ;; *************** function _send *****************
  3678 ;; Defined at:
  3679 ;;		line 72 in file "main.c"
  3680 ;; Parameters:    Size  Location     Type
  3681 ;;  data            1    wreg     unsigned char 
  3682 ;; Auto vars:     Size  Location     Type
  3683 ;;  data            1    0[COMMON] unsigned char 
  3684 ;; Return value:  Size  Location     Type
  3685 ;;                  1    wreg      void 
  3686 ;; Registers used:
  3687 ;;		wreg
  3688 ;; Tracked objects:
  3689 ;;		On entry : 0/0
  3690 ;;		On exit  : 0/0
  3691 ;;		Unchanged: 0/0
  3692 ;; Data sizes:     COMMON   BANK0   BANK1   BANK2   BANK3   BANK4   BANK5   BANK6   BANK7   BANK8   BANK9  BANK10  BANK1
      +1  BANK12
  3693 ;;      Params:         0       0       0       0       0       0       0       0       0       0       0       0       
      +0       0
  3694 ;;      Locals:         1       0       0       0       0       0       0       0       0       0       0       0       
      +0       0
  3695 ;;      Temps:          0       0       0       0       0       0       0       0       0       0       0       0       
      +0       0
  3696 ;;      Totals:         1       0       0       0       0       0       0       0       0       0       0       0       
      +0       0
  3697 ;;Total ram usage:        1 bytes
  3698 ;; Hardware stack levels used: 1
  3699 ;; This function calls:
  3700 ;;		Nothing
  3701 ;; This function is called by:
  3702 ;;		_isr
  3703 ;; This function uses a non-reentrant model
  3704 ;;
  3705                           
  3706                           
  3707                           ;psect for function _send
  3708  02E1                     _send:
  3709                           
  3710                           ;incstack = 0
  3711                           ; Regs used in _send: [wreg]
  3712                           ;send@data stored from wreg
  3713  02E1  00F0               	movwf	send@data
  3714  02E2                     i1l1330:
  3715  02E2                     i1l122:	
  3716                           ;main.c: 73: while(!TXSTAbits.TRMT);
  3717                           
  3718  02E2  0023               	movlb	3	; select bank3
  3719  02E3  1C9E               	btfss	30,1	;volatile
  3720  02E4  2AE6               	goto	u73_21
  3721  02E5  2AE7               	goto	u73_20
  3722  02E6                     u73_21:
  3723  02E6  2AE2               	goto	i1l122
  3724  02E7                     u73_20:
  3725  02E7                     i1l1332:
  3726                           
  3727                           ;main.c: 74: TXREG = data;
  3728  02E7  0870               	movf	send@data,w
  3729  02E8  009A               	movwf	26	;volatile
  3730  02E9                     i1l125:
  3731  02E9  0008               	return
  3732  02EA                     __end_of_send:
  3733  007E                     btemp	set	126	;btemp
  3734  007E                     int$flags	set	126
  3735  007E                     wtemp0	set	126
  3736                           
  3737                           	psect	config
  3738                           
  3739                           ;Config register CONFIG1 @ 0x8007
  3740                           ;	Oscillator Selection
  3741                           ;	FOSC = INTOSC, INTOSC oscillator: I/O function on CLKIN pin
  3742                           ;	Watchdog Timer Enable
  3743                           ;	WDTE = OFF, WDT disabled
  3744                           ;	Power-up Timer Enable
  3745                           ;	PWRTE = OFF, PWRT disabled
  3746                           ;	MCLR Pin Function Select
  3747                           ;	MCLRE = ON, MCLR/VPP pin function is MCLR
  3748                           ;	Flash Program Memory Code Protection
  3749                           ;	CP = OFF, Program memory code protection is disabled
  3750                           ;	Data Memory Code Protection
  3751                           ;	CPD = OFF, Data memory code protection is disabled
  3752                           ;	Brown-out Reset Enable
  3753                           ;	BOREN = ON, Brown-out Reset enabled
  3754                           ;	Clock Out Enable
  3755                           ;	CLKOUTEN = OFF, CLKOUT function is disabled. I/O or oscillator function on the CLKOUT 
      +                          pin
  3756                           ;	Internal/External Switchover
  3757                           ;	IESO = ON, Internal/External Switchover mode is enabled
  3758                           ;	Fail-Safe Clock Monitor Enable
  3759                           ;	FCMEN = ON, Fail-Safe Clock Monitor is enabled
  3760  8007                     	org	32775
  3761  8007  3FE4               	dw	16356
  3762                           
  3763                           ;Config register CONFIG2 @ 0x8008
  3764                           ;	Flash Memory Self-Write Protection
  3765                           ;	WRT = OFF, Write protection off
  3766                           ;	Voltage Regulator Capacitor Enable
  3767                           ;	VCAPEN = OFF, All VCAP pin functionality is disabled
  3768                           ;	PLL Enable
  3769                           ;	PLLEN = OFF, 4x PLL disabled
  3770                           ;	Stack Overflow/Underflow Reset Enable
  3771                           ;	STVREN = ON, Stack Overflow or Underflow will cause a Reset
  3772                           ;	Brown-out Reset Voltage Selection
  3773                           ;	BORV = LO, Brown-out Reset Voltage (Vbor), low trip point selected.
  3774                           ;	Low-Voltage Programming Enable
  3775                           ;	LVP = OFF, High-voltage on MCLR/VPP must be used for programming
  3776  8008                     	org	32776
  3777  8008  1EFF               	dw	7935

Data Sizes:
    Strings     0
    Constant    0
    Data        0
    BSS         3
    Persistent  32
    Stack       0

Auto Spaces:
    Space          Size  Autos    Used
    COMMON           14     14      14
    BANK0            80     34      37
    BANK1            80      0       0
    BANK2            80      0       0
    BANK3            80      0       0
    BANK4            80      0       0
    BANK5            80      0       0
    BANK6            80      0       0
    BANK7            80      0       0
    BANK8            80      0       0
    BANK9            80      0       0
    BANK10           80      0       0
    BANK11           80      0       0
    BANK12           48      0       0

Pointer List with Targets:

    None.

Critical Paths under _main in COMMON

    None.

Critical Paths under _isr in COMMON

    _set_pwm->i1_i2c_write
    _map->i1___lwdiv
    i1___lwdiv->___wmul

Critical Paths under _main in BANK0

    _main->_set_pwm_freq
    _set_pwm_freq->___lwdiv
    __write->_i2c_write
    __read->_i2c_read
    _init->_i2c_write

Critical Paths under _isr in BANK0

    _isr->_servo_write
    _servo_write->_map

Critical Paths under _main in BANK1

    None.

Critical Paths under _isr in BANK1

    None.

Critical Paths under _main in BANK2

    None.

Critical Paths under _isr in BANK2

    None.

Critical Paths under _main in BANK3

    None.

Critical Paths under _isr in BANK3

    None.

Critical Paths under _main in BANK4

    None.

Critical Paths under _isr in BANK4

    None.

Critical Paths under _main in BANK5

    None.

Critical Paths under _isr in BANK5

    None.

Critical Paths under _main in BANK6

    None.

Critical Paths under _isr in BANK6

    None.

Critical Paths under _main in BANK7

    None.

Critical Paths under _isr in BANK7

    None.

Critical Paths under _main in BANK8

    None.

Critical Paths under _isr in BANK8

    None.

Critical Paths under _main in BANK9

    None.

Critical Paths under _isr in BANK9

    None.

Critical Paths under _main in BANK10

    None.

Critical Paths under _isr in BANK10

    None.

Critical Paths under _main in BANK11

    None.

Critical Paths under _isr in BANK11

    None.

Critical Paths under _main in BANK12

    None.

Critical Paths under _isr in BANK12

    None.

Call Graph Tables:

 ---------------------------------------------------------------------------------
 (Depth) Function   	        Calls       Base Space   Used Autos Params    Refs
 ---------------------------------------------------------------------------------
 (0) _main                                                 2     2      0    1176
                                             32 BANK0      2     2      0
                  _SYSTEM_Initialize
                               _init
                       _set_pwm_freq
 ---------------------------------------------------------------------------------
 (1) _set_pwm_freq                                         8     6      2    1154
                                             24 BANK0      8     6      2
                            ___lwdiv
                              __read
                             __write
 ---------------------------------------------------------------------------------
 (2) __write                                               2     1      1     370
                                             17 BANK0      2     1      1
                          _i2c_start
                           _i2c_stop
                          _i2c_write
 ---------------------------------------------------------------------------------
 (2) __read                                                3     3      0     112
                                             19 BANK0      3     3      0
                           _i2c_read
                 _i2c_repeated_start
                          _i2c_start
                           _i2c_stop
                          _i2c_write
 ---------------------------------------------------------------------------------
 (3) _i2c_repeated_start                                   0     0      0       0
                           _i2c_wait
 ---------------------------------------------------------------------------------
 (3) _i2c_read                                             3     3      0      45
                                             16 BANK0      3     3      0
                           _i2c_wait
 ---------------------------------------------------------------------------------
 (2) ___lwdiv                                              8     4      4     414
                                             16 BANK0      8     4      4
 ---------------------------------------------------------------------------------
 (1) _init                                                 0     0      0      22
                          _i2c_start
                           _i2c_stop
                          _i2c_write
 ---------------------------------------------------------------------------------
 (3) _i2c_write                                            1     1      0      22
                                             16 BANK0      1     1      0
                           _i2c_wait
 ---------------------------------------------------------------------------------
 (3) _i2c_stop                                             0     0      0       0
 ---------------------------------------------------------------------------------
 (3) _i2c_start                                            0     0      0       0
                           _i2c_wait
 ---------------------------------------------------------------------------------
 (4) _i2c_wait                                             0     0      0       0
 ---------------------------------------------------------------------------------
 (1) _SYSTEM_Initialize                                    0     0      0       0
              _OSCILLATOR_Initialize
             _PIN_MANAGER_Initialize
                     _WDT_Initialize
 ---------------------------------------------------------------------------------
 (2) _WDT_Initialize                                       0     0      0       0
 ---------------------------------------------------------------------------------
 (2) _PIN_MANAGER_Initialize                               0     0      0       0
 ---------------------------------------------------------------------------------
 (2) _OSCILLATOR_Initialize                                0     0      0       0
 ---------------------------------------------------------------------------------
 Estimated maximum stack depth 4
 ---------------------------------------------------------------------------------
 (Depth) Function   	        Calls       Base Space   Used Autos Params    Refs
 ---------------------------------------------------------------------------------
 (5) _isr                                                  3     3      0    1508
                                             13 BANK0      3     3      0
                               _send
                        _servo_write
 ---------------------------------------------------------------------------------
 (6) _servo_write                                          3     1      2    1419
                                             10 BANK0      3     1      2
                                _map
                            _set_pwm
 ---------------------------------------------------------------------------------
 (7) _set_pwm                                              6     2      4     284
                                              1 COMMON     6     2      4
                        i1_i2c_start
                         i1_i2c_stop
                        i1_i2c_write
 ---------------------------------------------------------------------------------
 (8) i1_i2c_write                                          1     1      0      22
                                              0 COMMON     1     1      0
                         i1_i2c_wait
 ---------------------------------------------------------------------------------
 (8) i1_i2c_stop                                           0     0      0       0
 ---------------------------------------------------------------------------------
 (8) i1_i2c_start                                          0     0      0       0
                         i1_i2c_wait
 ---------------------------------------------------------------------------------
 (9) i1_i2c_wait                                           0     0      0       0
 ---------------------------------------------------------------------------------
 (7) _map                                                 10     0     10     992
                                              0 BANK0     10     0     10
                             ___wmul
                          i1___lwdiv
 ---------------------------------------------------------------------------------
 (8) i1___lwdiv                                            8     4      4     214
                                              6 COMMON     8     4      4
                             ___wmul (ARG)
 ---------------------------------------------------------------------------------
 (8) ___wmul                                               6     2      4     244
                                              0 COMMON     6     2      4
 ---------------------------------------------------------------------------------
 (6) _send                                                 1     1      0      22
                                              0 COMMON     1     1      0
 ---------------------------------------------------------------------------------
 Estimated maximum stack depth 9
 ---------------------------------------------------------------------------------

 Call Graph Graphs:

 _main (ROOT)
   _SYSTEM_Initialize
     _OSCILLATOR_Initialize
     _PIN_MANAGER_Initialize
     _WDT_Initialize
   _init
     _i2c_start
       _i2c_wait
     _i2c_stop
     _i2c_write
       _i2c_wait
   _set_pwm_freq
     ___lwdiv
     __read
       _i2c_read
         _i2c_wait
       _i2c_repeated_start
         _i2c_wait
       _i2c_start
       _i2c_stop
       _i2c_write
     __write
       _i2c_start
       _i2c_stop
       _i2c_write

 _isr (ROOT)
   _send
   _servo_write
     _map
       ___wmul
       i1___lwdiv
         ___wmul (ARG)
     _set_pwm
       i1_i2c_start
         i1_i2c_wait
       i1_i2c_stop
       i1_i2c_write
         i1_i2c_wait

 Address spaces:
Name               Size   Autos  Total    Cost      Usage
BIGRAM             3F0      0       0       0        0.0%
EEDATA             100      0       0       0        0.0%
NULL                 0      0       0       0        0.0%
CODE                 0      0       0       0        0.0%
BITCOMMON            E      0       0       1        0.0%
BITSFR0              0      0       0       1        0.0%
SFR0                 0      0       0       1        0.0%
COMMON               E      E       E       2      100.0%
BITSFR1              0      0       0       2        0.0%
SFR1                 0      0       0       2        0.0%
BITSFR2              0      0       0       3        0.0%
SFR2                 0      0       0       3        0.0%
STACK                0      0       0       3        0.0%
BITBANK0            50      0       0       4        0.0%
BITSFR3              0      0       0       4        0.0%
SFR3                 0      0       0       4        0.0%
BANK0               50     22      25       5       46.2%
BITSFR4              0      0       0       5        0.0%
SFR4                 0      0       0       5        0.0%
BITBANK1            50      0       0       6        0.0%
BITSFR5              0      0       0       6        0.0%
SFR5                 0      0       0       6        0.0%
BANK1               50      0       0       7        0.0%
BITSFR6              0      0       0       7        0.0%
SFR6                 0      0       0       7        0.0%
BITBANK2            50      0       0       8        0.0%
BITSFR7              0      0       0       8        0.0%
SFR7                 0      0       0       8        0.0%
BANK2               50      0       0       9        0.0%
BITSFR8              0      0       0       9        0.0%
SFR8                 0      0       0       9        0.0%
BITBANK3            50      0       0      10        0.0%
BITSFR9              0      0       0      10        0.0%
SFR9                 0      0       0      10        0.0%
BANK3               50      0       0      11        0.0%
BITSFR10             0      0       0      11        0.0%
SFR10                0      0       0      11        0.0%
BITBANK4            50      0       0      12        0.0%
BITSFR11             0      0       0      12        0.0%
SFR11                0      0       0      12        0.0%
BANK4               50      0       0      13        0.0%
BITSFR12             0      0       0      13        0.0%
SFR12                0      0       0      13        0.0%
BITBANK5            50      0       0      14        0.0%
BITSFR13             0      0       0      14        0.0%
SFR13                0      0       0      14        0.0%
BANK5               50      0       0      15        0.0%
BITSFR14             0      0       0      15        0.0%
SFR14                0      0       0      15        0.0%
BITBANK6            50      0       0      16        0.0%
BITSFR15             0      0       0      16        0.0%
SFR15                0      0       0      16        0.0%
BANK6               50      0       0      17        0.0%
BITSFR16             0      0       0      17        0.0%
SFR16                0      0       0      17        0.0%
BITBANK7            50      0       0      18        0.0%
BITSFR17             0      0       0      18        0.0%
SFR17                0      0       0      18        0.0%
BANK7               50      0       0      19        0.0%
BITSFR18             0      0       0      19        0.0%
SFR18                0      0       0      19        0.0%
BITSFR19             0      0       0      20        0.0%
SFR19                0      0       0      20        0.0%
ABS                  0      0      33      20        0.0%
BITBANK8            50      0       0      21        0.0%
BITSFR20             0      0       0      21        0.0%
SFR20                0      0       0      21        0.0%
BANK8               50      0       0      22        0.0%
BITSFR21             0      0       0      22        0.0%
SFR21                0      0       0      22        0.0%
BITBANK9            50      0       0      23        0.0%
BITSFR22             0      0       0      23        0.0%
SFR22                0      0       0      23        0.0%
BANK9               50      0       0      24        0.0%
BITSFR23             0      0       0      24        0.0%
SFR23                0      0       0      24        0.0%
BITBANK10           50      0       0      25        0.0%
BITSFR24             0      0       0      25        0.0%
SFR24                0      0       0      25        0.0%
BANK10              50      0       0      26        0.0%
BITSFR25             0      0       0      26        0.0%
SFR25                0      0       0      26        0.0%
BITBANK11           50      0       0      27        0.0%
BITSFR26             0      0       0      27        0.0%
SFR26                0      0       0      27        0.0%
BANK11              50      0       0      28        0.0%
BITSFR27             0      0       0      28        0.0%
SFR27                0      0       0      28        0.0%
BITBANK12           30      0       0      29        0.0%
BITSFR28             0      0       0      29        0.0%
SFR28                0      0       0      29        0.0%
BANK12              30      0       0      30        0.0%
BITSFR29             0      0       0      30        0.0%
SFR29                0      0       0      30        0.0%
BITSFR30             0      0       0      31        0.0%
SFR30                0      0       0      31        0.0%
DATA                 0      0      33      31        0.0%
BITSFR31             0      0       0      32        0.0%
SFR31                0      0       0      32        0.0%


Microchip Technology PIC Macro Assembler V2.32 build 20210201212658 
Symbol Table                                                                                   Sat Jul 10 19:42:28 2021

        set_pwm_freq@prescaleval 003D                      _SSPSTATbits 0214                               l31 0255  
                             l51 02D6                               l54 02F7                               l57 0302  
            ___wmul@multiplicand 0072                              l210 027F                              l204 026C  
                            l116 00EC                              l117 00EC                              l207 0200  
                            l216 00AE                              l162 02CC                              l171 02BE  
                            l156 02AC                              l180 0289                              l165 02EC  
                            l174 02C2                              l159 02C8                              l183 0290  
                            l168 02F0                              l177 0285                              l186 0229  
                            l188 022D                              l189 023A                              l644 012B  
                            _GIE 005F                              u400 02A8                              u401 02A7  
                            u410 02AC                              u411 02AB                              u440 02CC  
                            u441 02CB                              u450 02F0                              u451 02EF  
                            u700 0117                              u460 02C2                              u701 0116  
                            u461 02C1                              u470 0289                              u471 0288  
                            u480 028D                              u720 0127                              u481 028C  
                            u721 0126                              u705 0113                              u490 022D  
                            u715 011D                              u491 022C                              u660 00F8  
                            u661 00F7                              u807 009F                              u680 0108  
                            u681 0107                              u675 00FC                              u695 0109  
                            u797 00C6                              _flg 0044                              _map 01B9  
                            _isr 0004                              wreg 0009                             l1302 02CD  
                           l1310 005B                             l1240 0245                             l1144 02A1  
                           l1160 02EA                             l1304 026D                             l1320 0081  
                           l1312 006B                             l1250 02F1                             l1242 0247  
                           l1234 023B                             l1146 02A1                             l1306 027C  
                           l1170 0222                             l1162 02B9                             l1322 0089  
                           l1314 006F                             l1252 02F4                             l1244 0249  
                           l1236 0240                             l1148 02A8                             l1156 02C3  
                           l1180 0238                             l1172 0228                             l1164 02BC  
                           l1260 0269                             l1324 0092                             l1316 0073  
                           l1308 0056                             l1340 00B4                             l1254 02F5  
                           l1246 024C                             l1238 0243                             l1158 02C6  
                           l1166 0282                             l1174 022E                             l1262 01E0  
                           l1326 009B                             l1318 007B                             l1350 00BE  
                           l1342 00B5                             l1248 0251                             l1256 02FF  
                           l1168 028D                             l1280 00F8                             l1176 0233  
                           l1264 01FB                             l1328 00A4                             l1360 00D8  
                           l1352 00BF                             l1344 00B7                             l1336 00AF  
                           l1290 0117                             l1282 00FB                             l1178 0235  
                           l1258 0258                             l1370 00E3                             l1362 00DB  
                           l1354 00C0                             l1346 00B9                             l1338 00B2  
                           l1292 011B                             l1284 0100                             l1276 00EF  
                           l1372 00E5                             l1364 00DD                             l1356 00CD  
                           l1348 00BC                             l1294 011C                             l1286 0104  
                           l1278 00F2                             l1374 00E6                             l1366 00DF  
                           l1358 00D0                             l1296 0121                             l1288 0108  
                           l1376 00E7                             l1368 00E1                             l1298 0127  
                           l1378 00EA                             ?_map 0020                             ?_isr 0070  
                           _LATA 010C                             _LATB 010D                             _LATC 010E  
                           _LATE 0110                             _PEIE 005E                             _WPUB 020D  
                           _WPUE 0210                             _main 00AF                             _init 026D  
                           _send 02E1                             map@x 0020                             btemp 007E  
                           start 004C                            ??_map 007E                            ??_isr 002D  
 __size_of_OSCILLATOR_Initialize 0007    __end_of_OSCILLATOR_Initialize 02F8                            ?_main 0070  
                          ?_init 0070                            ?_send 0070                      i2c_read@ack 0031  
                __end_of___lwdiv 012C                            i1l122 02E2                            i1l125 02E9  
                          i1l213 01B8                            i1l222 0190                            i1l162 02E0  
                          i1l138 004A                            i1l219 01DD                            i1l156 02B8  
                          i1l180 0299                            i1l165 02FA                            i1l159 02DC  
                          i1l183 02A0                            i1l168 02FE                            i1l177 0295  
                          i1l372 020B                            i1l374 021F                            i1l644 0167  
                          _RCREG 0199                            _RCSTA 019D                            u50_20 0207  
                          u42_20 02B4                            u50_21 0206                            u42_21 02B3  
                          _SPBRG 019B                            u43_20 02B8                            u43_21 02B7  
                          u51_25 020C                            u60_20 0144                            u60_21 0143  
                          u52_25 0211                            u53_20 021B                            u53_21 021A  
                          u61_25 0145                            u62_20 0153                            u54_20 02E0  
                          u62_21 0152                            u54_21 02DF                            u62_25 014F  
                          u55_20 02FE                            u55_21 02FD                            u63_25 0159  
                          u64_20 0163                            u56_20 0299                    servo_write@ch 002C  
                          u64_21 0162                            u56_21 0298                            u73_20 02E7  
                          u57_20 029D                            u73_21 02E6                            u57_21 029C  
                          _TRISA 008C                            _TRISB 008D                            u65_25 019C  
                          _TRISC 008E                            _TRISE 0090                            u58_20 0134  
                          u74_20 000B                            u58_21 0133                            u74_21 000A  
                          u75_20 0011                            u75_21 0010                            u59_25 0138  
                          u76_20 0015                            u76_21 0014                            u77_20 001F  
                          u77_21 001E                            u78_20 003B                            u78_21 003A  
                          _TXREG 019A                            _TXSTA 019E                            __read 01DE  
                 _WDT_Initialize 02FF                      ?i1_i2c_wait 0070                      ?i1_i2c_stop 0070  
                __end_of_set_pwm 01B9                            status 0003                            wtemp0 007E  
             __size_ofi1___lwdiv 003C                  __initialization 004E                     __end_of_main 00EF  
                   __end_of_init 0280                     __end_of_send 02EA                 __end_of_i2c_read 023B  
               __end_of_i2c_wait 02AD                 __end_of_i2c_stop 02F1                           ??_main 0040  
                         ??_init 0031                           ??_send 0070           __end_of_WDT_Initialize 0303  
                         ?__read 0070                           _APFCON 011D                           _ANSELA 018C  
                         _ANSELB 018D                           _BORCON 0116                     i2c_read@data 0032  
                         i1l1200 02DA                           i1l1210 012E                           i1l1202 02F8  
                         i1l1220 0144                           i1l1212 0134                           i1l1204 0292  
                         i1l1222 0153                           i1l1214 0137                           i1l1230 0163  
                         i1l1150 02AD                           i1l1206 029D                           i1l1224 0157  
                         i1l1216 013C                           i1l1208 012C                           i1l1152 02AD  
                         i1l1400 002A                           i1l1330 02E2                           i1l1226 0158  
                         i1l1218 0140                           i1l1154 02B4                           i1l1402 0030  
                         i1l1332 02E7                           i1l1228 015D                           i1l1404 0034  
                         i1l1190 0210                           i1l1270 01B5                           i1l1334 016A  
                         i1l1406 003B                           i1l1192 0215                           i1l1184 0201  
                         i1l1272 01B9                           i1l1408 0042                           i1l1194 021B  
                         i1l1186 0203                           i1l1188 0207                           i1l1268 0192  
                         i1l1380 0006                           i1l1198 02D7                           i1l1390 0019  
                         i1l1382 000B                           i1l1392 001F                           i1l1384 0011  
                         i1l1394 0022                           i1l1386 0015                           i1l1396 0025  
                         i1l1388 0016                           i1l1398 0027                           _OSCCON 0099  
                         _WDTCON 0097                           _SSPADD 0212                           _SSPBUF 0211  
                 servo_write@ang 002A               __size_of_i2c_start 000A               __size_of_i2c_write 0011  
                         ___wmul 0201                        ??___lwdiv 0034                           __write 0256  
            __size_ofi1_i2c_wait 000C              __size_ofi1_i2c_stop 0007                     ?i1_i2c_start 0070  
                   ?i1_i2c_write 0070                __end_ofi1___lwdiv 0168               _i2c_repeated_start 02B9  
                ?_WDT_Initialize 0070                        ??_set_pwm 0075                     ?_servo_write 002A  
            ?_i2c_repeated_start 0070                _SYSTEM_Initialize 02CD          __end_of__initialization 0052  
             ?_SYSTEM_Initialize 0070                   __pcstackCOMMON 0070              ??_SYSTEM_Initialize 0030  
                  __end_of__read 0201             ??_i2c_repeated_start 0030                __end_of_i2c_start 02CD  
              __end_of_i2c_write 0291                   _OPTION_REGbits 0095                          ??__read 0033  
                     __read@addr 0034        __end_of_SYSTEM_Initialize 02D7                       __read@data 0035  
                     __pbssBANK0 0042                        ?_i2c_read 0070                        ?_i2c_wait 0070  
                      ?_i2c_stop 0070                       __pmaintext 00AF                          ?___wmul 0070  
                     __pintentry 0004                          ?__write 0031                          _BAUDCON 019F  
                        _OSCTUNE 0098                          _SSPCON1 0215                          _SSPCON2 0216  
                   ??i1_i2c_wait 0070                     ??i1_i2c_stop 0070                          _SSPSTAT 0214  
                     ??_i2c_read 0030                       ??_i2c_wait 0030                       ??_i2c_stop 0030  
                        _ch1_ang 0042                  __size_of___wmul 001F                          ___lwdiv 00EF  
                __size_of__write 0017               __end_ofi1_i2c_wait 02B9               __end_ofi1_i2c_stop 02FF  
                        __ptext1 0056                          __ptext2 0256                          __ptext3 01DE  
                        __ptext4 02B9                          __ptext5 0220                          __ptext6 00EF  
                        __ptext7 026D                          __ptext8 0280                          __ptext9 02EA  
                  ?_set_pwm_freq 0038                i1___lwdiv@divisor 0076            _OSCILLATOR_Initialize 02F1  
                   __size_of_map 0025                     __size_of_isr 0048                i1___lwdiv@counter 007D  
           __size_ofi1_i2c_start 000A             __size_ofi1_i2c_write 0010         ??_PIN_MANAGER_Initialize 0030  
                        _set_pwm 0191       __size_of_SYSTEM_Initialize 000A             end_of_initialization 0052  
                        isr@data 002F             __size_of_servo_write 0029                        _RCSTAbits 019D  
               ??_WDT_Initialize 0030                   ??_set_pwm_freq 003A                    i2c_write@data 0030  
                      i1___lwdiv 012C                       map@out_max 0028                       map@out_min 0026  
                      _TXSTAbits 019E                   __end_of___wmul 0220                   __end_of__write 026D  
         ?_OSCILLATOR_Initialize 0070              start_initialization 004E  __size_of_PIN_MANAGER_Initialize 001B  
                      _i2c_start 02C3                      __end_of_map 01DE                      __end_of_isr 004C  
                      _i2c_write 0280                       ?i1___lwdiv 0076                __size_of_i2c_read 001B  
              __size_of_i2c_wait 000C                __size_of_i2c_stop 0007                         ??___wmul 0074  
                       ??__write 0032      __size_of_i2c_repeated_start 000A             set_pwm_freq@prescale 003B  
                      ___latbits 0003                    __pcstackBANK0 0020                       ?_i2c_start 0070  
                     ?_i2c_write 0070                  i1i2c_write@data 0070             __end_of_set_pwm_freq 00AF  
               ___lwdiv@dividend 0032           _PIN_MANAGER_Initialize 023B                         ?___lwdiv 0030  
                       ?_set_pwm 0071                   __size_of__read 0023                 ___lwdiv@quotient 0035  
                    ??i1___lwdiv 007A                   ___wmul@product 0074                 set_pwm_freq@freq 0038  
                       _PIE1bits 0091                       set_pwm@off 0073                       set_pwm@num 0076  
                       _PIR1bits 0011                        map@in_max 0024                        map@in_min 0022  
                  ??i1_i2c_start 0070                    ??i1_i2c_write 0070                ___wmul@multiplier 0070  
                    __write@addr 0032                      ??_i2c_start 0030                      ??_i2c_write 0030  
                  ??_servo_write 007E                         _i2c_read 0220                         _i2c_wait 02A1  
                       _i2c_stop 02EA          ??_OSCILLATOR_Initialize 0030                 __size_of___lwdiv 003D  
                ___lwdiv@divisor 0030              __end_ofi1_i2c_start 02E1                  ___lwdiv@counter 0037  
            __end_ofi1_i2c_write 02A1                         __ptext10 02C3                         __ptext11 02A1  
                       __ptext20 02F8                         __ptext12 02CD                         __ptext21 02D7  
                       __ptext13 02FF                         __ptext22 02AD                         __ptext14 023B  
                       __ptext23 01B9                         __ptext15 02F1                         __ptext24 012C  
                       __ptext25 0201                         __ptext17 0168                         __ptext26 02E1  
                       __ptext18 0191                         __ptext19 0291                 __size_of_set_pwm 0028  
          __size_of_set_pwm_freq 0059                         __write@d 0031               i1___lwdiv@dividend 0078  
                  __size_of_main 0040                    __size_of_init 0013                    __size_of_send 0009  
            __end_of_servo_write 0191                        set_pwm@on 0071                         int$flags 007E  
             i1___lwdiv@quotient 007B                     _set_pwm_freq 0056               set_pwm_freq@oldreg 003F  
             set_pwm_freq@newreg 003C          __size_of_WDT_Initialize 0004                         intlevel1 0000  
                       send@data 0070          ?_PIN_MANAGER_Initialize 0070       __end_of_i2c_repeated_start 02C3  
                    i1_i2c_start 02D7                      i1_i2c_write 0291                      _SSPCON1bits 0215  
                    _SSPCON2bits 0216                       i1_i2c_wait 02AD                       i1_i2c_stop 02F8  
                    _servo_write 0168   __end_of_PIN_MANAGER_Initialize 0256  
